gpasm-2.0.0_beta2 (Nov  6 2017)_divschar.asm      2018-1-12  13:52:47          PAGE  1


LOC  OBJECT CODE     LINE SOURCE TEXT
  VALUE

                      00001 ;--------------------------------------------------------
                      00002 ; File Created by SN-SDCC : SinoMCU ANSI-C Compiler
                      00003 ; Version 1.1.0 (Dec 19 2017) (MINGW32)
                      00004 ; This file was generated Fri Jan 12 13:52:46 2018
                      00005 ;--------------------------------------------------------
                      00006 ; MC30 port for the RISC core
                      00007 ;--------------------------------------------------------
                      00008 ;       .file   "../../libsdcc_mc30/_divschar.c"
                      00009         list    p=0311
                      00010         radix dec
                      00011         include "0311.inc"
                      00001                 LIST
                      00002 ;mc30p6080.inc    Standard Header File, Version 1.00 by Sinomcu
                      00326                 LIST
                      00012 ;--------------------------------------------------------
                      00013 ; external declarations
                      00014 ;--------------------------------------------------------
                      00015         extern  __divuchar
                      00016 
                      00017         extern STK06
                      00018         extern STK05
                      00019         extern STK04
                      00020         extern STK03
                      00021         extern STK02
                      00022         extern STK01
                      00023         extern STK00
                      00024 ;--------------------------------------------------------
                      00025 ; global declarations
                      00026 ;--------------------------------------------------------
                      00027         global  __divschar
                      00028 
                      00029 ;--------------------------------------------------------
                      00030 ; global definitions
                      00031 ;--------------------------------------------------------
                      00032 ;--------------------------------------------------------
                      00033 ; absolute symbol definitions
                      00034 ;--------------------------------------------------------
                      00035 ;--------------------------------------------------------
                      00036 ; compiler-defined variables
                      00037 ;--------------------------------------------------------
                      00038 UDL__divschar_0 udata
0000                  00039 r0x1000 res     1
0000                  00040 r0x1001 res     1
0001                  00041 r0x1002 res     1
0001                  00042 r0x1003 res     1
0002                  00043 r0x1004 res     1
0002                  00044 r0x1005 res     1
0003                  00045 r0x1006 res     1
0003                  00046 r0x1007 res     1
0004                  00047 r0x1008 res     1
                      00048 ;--------------------------------------------------------
                      00049 ; initialized data
                      00050 ;--------------------------------------------------------
                      00051 
                      00052 ;@Allocation info for local variables in function '_divschar'
                      00053 ;@_divschar _divuchar                 Allocated to registers ;size:2
                      00054 ;@_divschar b                         Allocated to registers r0x1001 ;size:1
                      00055 ;@_divschar a                         Allocated to registers r0x1000 ;size:1
                      00056 ;@end Allocation info for local variables in function '_divschar';
                      00057 
                      00058 ;--------------------------------------------------------
                      00059 ; overlayable items in internal ram 
                      00060 ;--------------------------------------------------------
                      00061 ;       udata_ovr
                      00062 ;--------------------------------------------------------
                      00063 ; code
                      00064 ;--------------------------------------------------------
                      00065 code__divschar  code
                      00066 ;***
                      00067 ;  pBlock Stats: dbName = C
                      00068 ;***
                      00069 ;entry:  __divschar     ;Function start
                      00070 ; 2 exit points
                      00071 ;has an exit
                      00072 ;functions called:
                      00073 ;   __divuchar
                      00074 ;   __divuchar
                      00075 ;   __divuchar
                      00076 ;   __divuchar
                      00077 ;   __divuchar
                      00078 ;   __divuchar
                      00079 ;   __divuchar
                      00080 ;   __divuchar
                      00081 ;11 compiler assigned registers:
                      00082 ;   r0x1000
                      00083 ;   STK00
                      00084 ;   r0x1001
                      00085 ;   r0x1002
                      00086 ;   r0x1003
                      00087 ;   r0x1004
                      00088 ;   r0x1005
                      00089 ;   r0x1006
                      00090 ;   r0x1007
                      00091 ;   r0x1008
                      00092 ;   r0x1009
                      00093 ;; Starting pCode block
                      00094 ;;[ICODE] ../../libsdcc_mc30/_divschar.c:32:  _entry($11) :
                      00095 ;;[ICODE] ../../libsdcc_mc30/_divschar.c:32:    proc __divschar [k1 lr0:0 so:0]{ ia0 a2p0 re0 rm0 nos0 ru0 dp0}{char function ( char fixed, char fixed) fixed}
0000                  00096 __divschar      ;Function start
                      00097 ; 2 exit points
                      00098 ;;[ICODE] ../../libsdcc_mc30/_divschar.c:32: iTemp0 [k2 lr3:48 so:0]{ ia0 a2p0 re1 rm0 nos0 ru0 dp0}{char fixed}{ sir@ __divschar_a_1_2}[r0x1000 ] = recv __divschar [k1 lr0:0 so:0]{ ia0 a2p0 re0 rm0 nos0 ru0 dp0}{char function ( char fixed, char fixed) fixed}
                      00099 ;       .line   32; "../../libsdcc_mc30/_divschar.c"    _divschar (signed char a, signed char b)
0000   1580           00100         MOVRA   r0x1000
                      00101 ;;[ICODE] ../../libsdcc_mc30/_divschar.c:32: iTemp1 [k4 lr4:50 so:0]{ ia0 a2p0 re1 rm0 nos0 ru0 dp0}{char fixed}{ sir@ __divschar_b_1_2}[r0x1001 ] = recv __divschar [k1 lr0:0 so:0]{ ia0 a2p0 re0 rm0 nos0 ru0 dp0}{char function ( char fixed, char fixed) fixed}
0001   1600           00102         MOVAR   STK00
0002   1580           00103         MOVRA   r0x1001
                      00104 ;;[ICODE] ../../libsdcc_mc30/_divschar.c:34:    iTemp2 [k6 lr5:6 so:0]{ ia0 a2p0 re0 rm0 nos0 ru0 dp0}{char fixed} = iTemp0 [k2 lr3:48 so:0]{ ia0 a2p0 re1 rm0 nos0 ru0 dp0}{char fixed}{ sir@ __divschar_a_1_2}[r0x1000 ] < 0x0 {const-char literal}
                      00105 ;;signed compare: left < lit(0x0=0), size=1, mask=ff
                      00106 ;       .line   34; "../../libsdcc_mc30/_divschar.c"    if (a < 0) {
0003   3803           00107         BSET    STATUS,0
0004   3380           00108         JBSET   r0x1000,7
0005   3C03           00109         BCLR    STATUS,0
0006   3003           00110         JBSET   STATUS,0
0007   2800           00111         GOTO    _00112_DS_
                      00112 ;;genSkipc:3195: created from rifx:00DE608C
                      00113 ;;[ICODE] ../../libsdcc_mc30/_divschar.c:34:    if iTemp2 [k6 lr5:6 so:0]{ ia0 a2p0 re0 rm0 nos0 ru0 dp0}{char fixed} == 0 goto _iffalse_2($8)
                      00114 ;;[ICODE] ../../libsdcc_mc30/_divschar.c:36:    iTemp3 [k7 lr7:8 so:0]{ ia0 a2p0 re0 rm0 nos0 ru0 dp0}{char fixed} = iTemp1 [k4 lr4:50 so:0]{ ia0 a2p0 re1 rm0 nos0 ru0 dp0}{char fixed}{ sir@ __divschar_b_1_2}[r0x1001 ] < 0x0 {const-char literal}
                      00115 ;;signed compare: left < lit(0x0=0), size=1, mask=ff
                      00116 ;       .line   36; "../../libsdcc_mc30/_divschar.c"    if (b < 0)
0008   3803           00117         BSET    STATUS,0
0009   3380           00118         JBSET   r0x1001,7
000A   3C03           00119         BCLR    STATUS,0
000B   3003           00120         JBSET   STATUS,0
000C   2800           00121         GOTO    _00106_DS_
                      00122 ;;genSkipc:3195: created from rifx:00DE608C
                      00123 ;;[ICODE] ../../libsdcc_mc30/_divschar.c:36:    if iTemp3 [k7 lr7:8 so:0]{ ia0 a2p0 re0 rm0 nos0 ru0 dp0}{char fixed} == 0 goto _iffalse_0($2)
                      00124 ;;[ICODE] ../../libsdcc_mc30/_divschar.c:37:    iTemp4 [k9 lr9:10 so:0]{ ia0 a2p0 re0 rm0 nos0 ru0 dp0}{int fixed}[r0x1002 r0x1003 ] = (int fixed)iTemp0 [k2 lr3:48 so:0]{ ia0 a2p0 re1 rm0 nos0 ru0 dp0}{char fixed}{ sir@ __divschar_a_1_2}[r0x1000 ]
                      00125 ;       .line   37; "../../libsdcc_mc30/_divschar.c"    return _divuchar ((unsigned int)-a, (unsigned int)-b);
000D   1600           00126         MOVAR   r0x1000
000E   1580           00127         MOVRA   r0x1002
000F   1D80           00128         CLRR    r0x1003
0010   3780           00129         JBCLR   r0x1002,7
0011   1B80           00130         DECR    r0x1003
                      00131 ;;[ICODE] ../../libsdcc_mc30/_divschar.c:37:    iTemp5 [k10 lr10:11 so:0]{ ia0 a2p0 re0 rm0 nos0 ru0 dp0}{int fixed}[r0x1002 r0x1003 ] = - iTemp4 [k9 lr9:10 so:0]{ ia0 a2p0 re0 rm0 nos0 ru0 dp0}{int fixed}[r0x1002 r0x1003 ]
0012   1C80           00132         COMR    r0x1002
0013   1C80           00133         COMR    r0x1003
0014   1980           00134         INCR    r0x1002
0015   3503           00135         JBCLR   STATUS,2
0016   1980           00136         INCR    r0x1003
                      00137 ;;[ICODE] ../../libsdcc_mc30/_divschar.c:37:    iTemp6 [k11 lr11:12 so:0]{ ia0 a2p0 re0 rm0 nos0 ru0 dp0}{unsigned-int fixed}[r0x1004 r0x1005 ] = (unsigned-int fixed)iTemp5 [k10 lr10:11 so:0]{ ia0 a2p0 re0 rm0 nos0 ru0 dp0}{int fixed}[r0x1002 r0x1003 ]
0017   1600           00138         MOVAR   r0x1002
0018   1580           00139         MOVRA   r0x1002
0019   1580           00140         MOVRA   r0x1004
001A   1600           00141         MOVAR   r0x1003
001B   1580           00142         MOVRA   r0x1005
                      00143 ;;[ICODE] ../../libsdcc_mc30/_divschar.c:37:    iTemp7 [k12 lr12:18 so:0]{ ia0 a2p0 re0 rm0 nos0 ru1 dp0}{unsigned-char fixed}[r0x1002 ] = (unsigned-char fixed)iTemp6 [k11 lr11:12 so:0]{ ia0 a2p0 re0 rm0 nos0 ru0 dp0}{unsigned-int fixed}[r0x1004 r0x1005 ]
                      00144 ;;108   MOVAR   r0x1004
                      00145 ;;[ICODE] ../../libsdcc_mc30/_divschar.c:37:    iTemp8 [k13 lr13:14 so:0]{ ia0 a2p0 re0 rm0 nos0 ru0 dp0}{int fixed}[r0x1004 r0x1005 ] = (int fixed)iTemp1 [k4 lr4:50 so:0]{ ia0 a2p0 re1 rm0 nos0 ru0 dp0}{char fixed}{ sir@ __divschar_b_1_2}[r0x1001 ]
001C   1600           00146         MOVAR   r0x1001
001D   1580           00147         MOVRA   r0x1004
001E   1D80           00148         CLRR    r0x1005
001F   3780           00149         JBCLR   r0x1004,7
0020   1B80           00150         DECR    r0x1005
                      00151 ;;[ICODE] ../../libsdcc_mc30/_divschar.c:37:    iTemp9 [k14 lr14:15 so:0]{ ia0 a2p0 re0 rm0 nos0 ru0 dp0}{int fixed}[r0x1004 r0x1005 ] = - iTemp8 [k13 lr13:14 so:0]{ ia0 a2p0 re0 rm0 nos0 ru0 dp0}{int fixed}[r0x1004 r0x1005 ]
0021   1C80           00152         COMR    r0x1004
0022   1C80           00153         COMR    r0x1005
0023   1980           00154         INCR    r0x1004
0024   3503           00155         JBCLR   STATUS,2
0025   1980           00156         INCR    r0x1005
                      00157 ;;[ICODE] ../../libsdcc_mc30/_divschar.c:37:    iTemp10 [k15 lr15:16 so:0]{ ia0 a2p0 re0 rm0 nos0 ru0 dp0}{unsigned-int fixed}[r0x1006 r0x1007 ] = (unsigned-int fixed)iTemp9 [k14 lr14:15 so:0]{ ia0 a2p0 re0 rm0 nos0 ru0 dp0}{int fixed}[r0x1004 r0x1005 ]
                      00158 ;;110   MOVAR   r0x1004
0026   1600           00159         MOVAR   r0x1005
0027   1580           00160         MOVRA   r0x1007
                      00161 ;;[ICODE] ../../libsdcc_mc30/_divschar.c:37:    iTemp11 [k16 lr16:18 so:0]{ ia0 a2p0 re0 rm0 nos0 ru0 dp0}{unsigned-char fixed}[r0x1004 ] = (unsigned-char fixed)iTemp10 [k15 lr15:16 so:0]{ ia0 a2p0 re0 rm0 nos0 ru0 dp0}{unsigned-int fixed}[r0x1006 r0x1007 ]
                      00162 ;;104   MOVAR   r0x1006
                      00163 ;;[ICODE] ../../libsdcc_mc30/_divschar.c:37:    send iTemp7 [k12 lr12:18 so:0]{ ia0 a2p0 re0 rm0 nos0 ru1 dp0}{unsigned-char fixed}[r0x1002 ]{argreg = 1}
                      00164 ;;[ICODE] ../../libsdcc_mc30/_divschar.c:37:    send iTemp11 [k16 lr16:18 so:0]{ ia0 a2p0 re0 rm0 nos0 ru0 dp0}{unsigned-char fixed}[r0x1004 ]{argreg = 1}
                      00165 ;;[ICODE] ../../libsdcc_mc30/_divschar.c:37:    iTemp12 [k19 lr19:20 so:0]{ ia0 a2p0 re0 rm0 nos0 ru1 dp0}{unsigned-char fixed}[r0x1002 ] = call __divuchar [k8 lr0:0 so:0]{ ia0 a2p0 re0 rm0 nos0 ru0 dp0}{unsigned-char function ( unsigned-char fixed, unsigned-char fixed) fixed}
                      00166 ;;103   MOVAR   r0x1004
                      00167 ;;109   MOVAR   r0x1006
0028   1600           00168         MOVAR   r0x1004
0029   1580           00169         MOVRA   r0x1006
002A   1580           00170         MOVRA   r0x1004
002B   1580           00171         MOVRA   STK00
002C   1600           00172         MOVAR   r0x1002
002D   2000           00173         CALL    __divuchar
002E   1580           00174         MOVRA   r0x1002
                      00175 ;;[ICODE] ../../libsdcc_mc30/_divschar.c:37:    ret iTemp12 [k19 lr19:20 so:0]{ ia0 a2p0 re0 rm0 nos0 ru1 dp0}{unsigned-char fixed}[r0x1002 ]
002F   1600           00176         MOVAR   r0x1002
0030   2800           00177         GOTO    _00114_DS_
                      00178 ;;[ICODE] ../../libsdcc_mc30/_divschar.c:37:  _iffalse_0($2) :
                      00179 ;;[ICODE] ../../libsdcc_mc30/_divschar.c:39:    iTemp13 [k20 lr22:23 so:0]{ ia0 a2p0 re0 rm0 nos0 ru0 dp0}{int fixed}[r0x1002 r0x1004 ] = (int fixed)iTemp0 [k2 lr3:48 so:0]{ ia0 a2p0 re1 rm0 nos0 ru0 dp0}{char fixed}{ sir@ __divschar_a_1_2}[r0x1000 ]
0031                  00180 _00106_DS_
                      00181 ;       .line   39; "../../libsdcc_mc30/_divschar.c"    return -_divuchar ((unsigned int)-a, (unsigned int)b);
0031   1600           00182         MOVAR   r0x1000
0032   1580           00183         MOVRA   r0x1002
0033   1D80           00184         CLRR    r0x1004
0034   3780           00185         JBCLR   r0x1002,7
0035   1B80           00186         DECR    r0x1004
                      00187 ;;[ICODE] ../../libsdcc_mc30/_divschar.c:39:    iTemp14 [k21 lr23:24 so:0]{ ia0 a2p0 re0 rm0 nos0 ru0 dp0}{int fixed}[r0x1002 r0x1004 ] = - iTemp13 [k20 lr22:23 so:0]{ ia0 a2p0 re0 rm0 nos0 ru0 dp0}{int fixed}[r0x1002 r0x1004 ]
0036   1C80           00188         COMR    r0x1002
0037   1C80           00189         COMR    r0x1004
0038   1980           00190         INCR    r0x1002
0039   3503           00191         JBCLR   STATUS,2
003A   1980           00192         INCR    r0x1004
                      00193 ;;[ICODE] ../../libsdcc_mc30/_divschar.c:39:    iTemp15 [k22 lr24:25 so:0]{ ia0 a2p0 re0 rm0 nos0 ru0 dp0}{unsigned-int fixed}[r0x1006 r0x1007 ] = (unsigned-int fixed)iTemp14 [k21 lr23:24 so:0]{ ia0 a2p0 re0 rm0 nos0 ru0 dp0}{int fixed}[r0x1002 r0x1004 ]
003B   1600           00194         MOVAR   r0x1002
003C   1580           00195         MOVRA   r0x1002
003D   1580           00196         MOVRA   r0x1006
003E   1600           00197         MOVAR   r0x1004
003F   1580           00198         MOVRA   r0x1007
                      00199 ;;[ICODE] ../../libsdcc_mc30/_divschar.c:39:    iTemp16 [k23 lr25:29 so:0]{ ia0 a2p0 re0 rm0 nos0 ru1 dp0}{unsigned-char fixed}[r0x1002 ] = (unsigned-char fixed)iTemp15 [k22 lr24:25 so:0]{ ia0 a2p0 re0 rm0 nos0 ru0 dp0}{unsigned-int fixed}[r0x1006 r0x1007 ]
                      00200 ;;105   MOVAR   r0x1006
                      00201 ;;[ICODE] ../../libsdcc_mc30/_divschar.c:39:    iTemp17 [k24 lr26:27 so:0]{ ia0 a2p0 re0 rm0 nos0 ru0 dp0}{unsigned-int fixed}[r0x1006 r0x1007 ] = (unsigned-int fixed)iTemp1 [k4 lr4:50 so:0]{ ia0 a2p0 re1 rm0 nos0 ru0 dp0}{char fixed}{ sir@ __divschar_b_1_2}[r0x1001 ]
0040   1600           00202         MOVAR   r0x1001
0041   1580           00203         MOVRA   r0x1006
0042   1D80           00204         CLRR    r0x1007
0043   3780           00205         JBCLR   r0x1006,7
0044   1B80           00206         DECR    r0x1007
                      00207 ;;[ICODE] ../../libsdcc_mc30/_divschar.c:39:    iTemp18 [k25 lr27:29 so:0]{ ia0 a2p0 re0 rm0 nos0 ru0 dp0}{unsigned-char fixed}[r0x1008 ] = (unsigned-char fixed)iTemp17 [k24 lr26:27 so:0]{ ia0 a2p0 re0 rm0 nos0 ru0 dp0}{unsigned-int fixed}[r0x1006 r0x1007 ]
                      00208 ;;107   MOVAR   r0x1006
                      00209 ;;[ICODE] ../../libsdcc_mc30/_divschar.c:39:    send iTemp16 [k23 lr25:29 so:0]{ ia0 a2p0 re0 rm0 nos0 ru1 dp0}{unsigned-char fixed}[r0x1002 ]{argreg = 1}
                      00210 ;;[ICODE] ../../libsdcc_mc30/_divschar.c:39:    send iTemp18 [k25 lr27:29 so:0]{ ia0 a2p0 re0 rm0 nos0 ru0 dp0}{unsigned-char fixed}[r0x1008 ]{argreg = 1}
                      00211 ;;[ICODE] ../../libsdcc_mc30/_divschar.c:39:    iTemp19 [k26 lr30:31 so:0]{ ia0 a2p0 re0 rm0 nos0 ru0 dp0}{unsigned-char fixed}[r0x1002 ] = call __divuchar [k8 lr0:0 so:0]{ ia0 a2p0 re0 rm0 nos0 ru0 dp0}{unsigned-char function ( unsigned-char fixed, unsigned-char fixed) fixed}
                      00212 ;;106   MOVAR   r0x1008
0045   1600           00213         MOVAR   r0x1006
0046   1580           00214         MOVRA   r0x1008
0047   1580           00215         MOVRA   STK00
0048   1600           00216         MOVAR   r0x1002
0049   2000           00217         CALL    __divuchar
004A   1580           00218         MOVRA   r0x1002
                      00219 ;;[ICODE] ../../libsdcc_mc30/_divschar.c:39:    iTemp20 [k27 lr31:32 so:0]{ ia0 a2p0 re0 rm0 nos0 ru1 dp0}{unsigned-char fixed}[r0x1002 ] = - iTemp19 [k26 lr30:31 so:0]{ ia0 a2p0 re0 rm0 nos0 ru0 dp0}{unsigned-char fixed}[r0x1002 ]
004B   1C80           00220         COMR    r0x1002
004C   1980           00221         INCR    r0x1002
                      00222 ;;[ICODE] ../../libsdcc_mc30/_divschar.c:39:    ret iTemp20 [k27 lr31:32 so:0]{ ia0 a2p0 re0 rm0 nos0 ru1 dp0}{unsigned-char fixed}[r0x1002 ]
004D   1600           00223         MOVAR   r0x1002
004E   2800           00224         GOTO    _00114_DS_
                      00225 ;;[ICODE] ../../libsdcc_mc30/_divschar.c:39:  _iffalse_2($8) :
                      00226 ;;[ICODE] ../../libsdcc_mc30/_divschar.c:42:    iTemp21 [k28 lr34:35 so:0]{ ia0 a2p0 re0 rm0 nos0 ru0 dp0}{char fixed} = iTemp1 [k4 lr4:50 so:0]{ ia0 a2p0 re1 rm0 nos0 ru0 dp0}{char fixed}{ sir@ __divschar_b_1_2}[r0x1001 ] < 0x0 {const-char literal}
                      00227 ;;signed compare: left < lit(0x0=0), size=1, mask=ff
004F                  00228 _00112_DS_
                      00229 ;       .line   42; "../../libsdcc_mc30/_divschar.c"    if (b < 0)
004F   3803           00230         BSET    STATUS,0
0050   3380           00231         JBSET   r0x1001,7
0051   3C03           00232         BCLR    STATUS,0
0052   3003           00233         JBSET   STATUS,0
0053   2800           00234         GOTO    _00109_DS_
                      00235 ;;genSkipc:3195: created from rifx:00DE608C
                      00236 ;;[ICODE] ../../libsdcc_mc30/_divschar.c:42:    if iTemp21 [k28 lr34:35 so:0]{ ia0 a2p0 re0 rm0 nos0 ru0 dp0}{char fixed} == 0 goto _iffalse_1($5)
                      00237 ;;[ICODE] ../../libsdcc_mc30/_divschar.c:43:    iTemp22 [k29 lr36:37 so:0]{ ia0 a2p0 re0 rm0 nos0 ru0 dp0}{unsigned-int fixed}[r0x1002 r0x1006 ] = (unsigned-int fixed)iTemp0 [k2 lr3:48 so:0]{ ia0 a2p0 re1 rm0 nos0 ru0 dp0}{char fixed}{ sir@ __divschar_a_1_2}[r0x1000 ]
                      00238 ;       .line   43; "../../libsdcc_mc30/_divschar.c"    return -_divuchar ((unsigned int)a, (unsigned int)-b);
0054   1600           00239         MOVAR   r0x1000
0055   1580           00240         MOVRA   r0x1002
0056   1D80           00241         CLRR    r0x1006
0057   3780           00242         JBCLR   r0x1002,7
0058   1B80           00243         DECR    r0x1006
                      00244 ;;[ICODE] ../../libsdcc_mc30/_divschar.c:43:    iTemp23 [k30 lr37:43 so:0]{ ia0 a2p0 re0 rm0 nos0 ru1 dp0}{unsigned-char fixed}[r0x1007 ] = (unsigned-char fixed)iTemp22 [k29 lr36:37 so:0]{ ia0 a2p0 re0 rm0 nos0 ru0 dp0}{unsigned-int fixed}[r0x1002 r0x1006 ]
0059   1600           00245         MOVAR   r0x1002
005A   1580           00246         MOVRA   r0x1007
                      00247 ;;[ICODE] ../../libsdcc_mc30/_divschar.c:43:    iTemp24 [k31 lr38:39 so:0]{ ia0 a2p0 re0 rm0 nos0 ru0 dp0}{int fixed}[r0x1002 r0x1006 ] = (int fixed)iTemp1 [k4 lr4:50 so:0]{ ia0 a2p0 re1 rm0 nos0 ru0 dp0}{char fixed}{ sir@ __divschar_b_1_2}[r0x1001 ]
005B   1600           00248         MOVAR   r0x1001
005C   1580           00249         MOVRA   r0x1002
005D   1D80           00250         CLRR    r0x1006
005E   3780           00251         JBCLR   r0x1002,7
005F   1B80           00252         DECR    r0x1006
                      00253 ;;[ICODE] ../../libsdcc_mc30/_divschar.c:43:    iTemp25 [k32 lr39:40 so:0]{ ia0 a2p0 re0 rm0 nos0 ru0 dp0}{int fixed}[r0x1002 r0x1006 ] = - iTemp24 [k31 lr38:39 so:0]{ ia0 a2p0 re0 rm0 nos0 ru0 dp0}{int fixed}[r0x1002 r0x1006 ]
0060   1C80           00254         COMR    r0x1002
0061   1C80           00255         COMR    r0x1006
0062   1980           00256         INCR    r0x1002
0063   3503           00257         JBCLR   STATUS,2
0064   1980           00258         INCR    r0x1006
                      00259 ;;[ICODE] ../../libsdcc_mc30/_divschar.c:43:    iTemp26 [k33 lr40:41 so:0]{ ia0 a2p0 re0 rm0 nos0 ru0 dp0}{unsigned-int fixed}[r0x1008 r0x1009 ] = (unsigned-int fixed)iTemp25 [k32 lr39:40 so:0]{ ia0 a2p0 re0 rm0 nos0 ru0 dp0}{int fixed}[r0x1002 r0x1006 ]
                      00260 ;;112   MOVAR   r0x1002
0065   1600           00261         MOVAR   r0x1006
                      00262 ;;1     MOVRA   r0x1009
                      00263 ;;[ICODE] ../../libsdcc_mc30/_divschar.c:43:    iTemp27 [k34 lr41:43 so:0]{ ia0 a2p0 re0 rm0 nos0 ru0 dp0}{unsigned-char fixed}[r0x1002 ] = (unsigned-char fixed)iTemp26 [k33 lr40:41 so:0]{ ia0 a2p0 re0 rm0 nos0 ru0 dp0}{unsigned-int fixed}[r0x1008 r0x1009 ]
                      00264 ;;102   MOVAR   r0x1008
                      00265 ;;[ICODE] ../../libsdcc_mc30/_divschar.c:43:    send iTemp23 [k30 lr37:43 so:0]{ ia0 a2p0 re0 rm0 nos0 ru1 dp0}{unsigned-char fixed}[r0x1007 ]{argreg = 1}
                      00266 ;;[ICODE] ../../libsdcc_mc30/_divschar.c:43:    send iTemp27 [k34 lr41:43 so:0]{ ia0 a2p0 re0 rm0 nos0 ru0 dp0}{unsigned-char fixed}[r0x1002 ]{argreg = 1}
                      00267 ;;[ICODE] ../../libsdcc_mc30/_divschar.c:43:    iTemp28 [k35 lr44:45 so:0]{ ia0 a2p0 re0 rm0 nos0 ru0 dp0}{unsigned-char fixed}[r0x1002 ] = call __divuchar [k8 lr0:0 so:0]{ ia0 a2p0 re0 rm0 nos0 ru0 dp0}{unsigned-char function ( unsigned-char fixed, unsigned-char fixed) fixed}
                      00268 ;;101   MOVAR   r0x1002
                      00269 ;;111   MOVAR   r0x1008
0066   1600           00270         MOVAR   r0x1002
0067   1580           00271         MOVRA   r0x1008
0068   1580           00272         MOVRA   r0x1002
0069   1580           00273         MOVRA   STK00
006A   1600           00274         MOVAR   r0x1007
006B   2000           00275         CALL    __divuchar
006C   1580           00276         MOVRA   r0x1002
                      00277 ;;[ICODE] ../../libsdcc_mc30/_divschar.c:43:    iTemp29 [k36 lr45:46 so:0]{ ia0 a2p0 re0 rm0 nos0 ru1 dp0}{unsigned-char fixed}[r0x1002 ] = - iTemp28 [k35 lr44:45 so:0]{ ia0 a2p0 re0 rm0 nos0 ru0 dp0}{unsigned-char fixed}[r0x1002 ]
006D   1C80           00278         COMR    r0x1002
006E   1980           00279         INCR    r0x1002
                      00280 ;;[ICODE] ../../libsdcc_mc30/_divschar.c:43:    ret iTemp29 [k36 lr45:46 so:0]{ ia0 a2p0 re0 rm0 nos0 ru1 dp0}{unsigned-char fixed}[r0x1002 ]
006F   1600           00281         MOVAR   r0x1002
0070   2800           00282         GOTO    _00114_DS_
                      00283 ;;[ICODE] ../../libsdcc_mc30/_divschar.c:43:  _iffalse_1($5) :
                      00284 ;;[ICODE] ../../libsdcc_mc30/_divschar.c:45:    iTemp30 [k37 lr48:49 so:0]{ ia0 a2p0 re0 rm0 nos0 ru0 dp0}{unsigned-int fixed}[r0x1002 r0x1007 ] = (unsigned-int fixed)iTemp0 [k2 lr3:48 so:0]{ ia0 a2p0 re1 rm0 nos0 ru0 dp0}{char fixed}{ sir@ __divschar_a_1_2}[r0x1000 ]
0071                  00285 _00109_DS_
                      00286 ;       .line   45; "../../libsdcc_mc30/_divschar.c"    return _divuchar ((unsigned int)a, (unsigned int)b);
0071   1600           00287         MOVAR   r0x1000
0072   1580           00288         MOVRA   r0x1002
0073   1D80           00289         CLRR    r0x1007
0074   3780           00290         JBCLR   r0x1002,7
0075   1B80           00291         DECR    r0x1007
                      00292 ;;[ICODE] ../../libsdcc_mc30/_divschar.c:45:    iTemp31 [k38 lr49:53 so:0]{ ia0 a2p0 re0 rm0 nos0 ru1 dp0}{unsigned-char fixed}[r0x1000 ] = (unsigned-char fixed)iTemp30 [k37 lr48:49 so:0]{ ia0 a2p0 re0 rm0 nos0 ru0 dp0}{unsigned-int fixed}[r0x1002 r0x1007 ]
0076   1600           00293         MOVAR   r0x1002
0077   1580           00294         MOVRA   r0x1000
                      00295 ;;[ICODE] ../../libsdcc_mc30/_divschar.c:45:    iTemp32 [k39 lr50:51 so:0]{ ia0 a2p0 re0 rm0 nos0 ru0 dp0}{unsigned-int fixed}[r0x1002 r0x1007 ] = (unsigned-int fixed)iTemp1 [k4 lr4:50 so:0]{ ia0 a2p0 re1 rm0 nos0 ru0 dp0}{char fixed}{ sir@ __divschar_b_1_2}[r0x1001 ]
0078   1600           00296         MOVAR   r0x1001
0079   1580           00297         MOVRA   r0x1002
007A   1D80           00298         CLRR    r0x1007
007B   3780           00299         JBCLR   r0x1002,7
007C   1B80           00300         DECR    r0x1007
                      00301 ;;[ICODE] ../../libsdcc_mc30/_divschar.c:45:    iTemp33 [k40 lr51:53 so:0]{ ia0 a2p0 re0 rm0 nos0 ru0 dp0}{unsigned-char fixed}[r0x1001 ] = (unsigned-char fixed)iTemp32 [k39 lr50:51 so:0]{ ia0 a2p0 re0 rm0 nos0 ru0 dp0}{unsigned-int fixed}[r0x1002 r0x1007 ]
                      00302 ;;100   MOVAR   r0x1002
                      00303 ;;[ICODE] ../../libsdcc_mc30/_divschar.c:45:    send iTemp31 [k38 lr49:53 so:0]{ ia0 a2p0 re0 rm0 nos0 ru1 dp0}{unsigned-char fixed}[r0x1000 ]{argreg = 1}
                      00304 ;;[ICODE] ../../libsdcc_mc30/_divschar.c:45:    send iTemp33 [k40 lr51:53 so:0]{ ia0 a2p0 re0 rm0 nos0 ru0 dp0}{unsigned-char fixed}[r0x1001 ]{argreg = 1}
                      00305 ;;[ICODE] ../../libsdcc_mc30/_divschar.c:45:    iTemp34 [k41 lr54:55 so:0]{ ia0 a2p0 re0 rm0 nos0 ru1 dp0}{unsigned-char fixed}[r0x1000 ] = call __divuchar [k8 lr0:0 so:0]{ ia0 a2p0 re0 rm0 nos0 ru0 dp0}{unsigned-char function ( unsigned-char fixed, unsigned-char fixed) fixed}
                      00306 ;;99    MOVAR   r0x1001
007D   1600           00307         MOVAR   r0x1002
007E   1580           00308         MOVRA   r0x1001
007F   1580           00309         MOVRA   STK00
0080   1600           00310         MOVAR   r0x1000
0081   2000           00311         CALL    __divuchar
0082   1580           00312         MOVRA   r0x1000
                      00313 ;;[ICODE] ../../libsdcc_mc30/_divschar.c:45:    ret iTemp34 [k41 lr54:55 so:0]{ ia0 a2p0 re0 rm0 nos0 ru1 dp0}{unsigned-char fixed}[r0x1000 ]
0083   1600           00314         MOVAR   r0x1000
                      00315 ;;[ICODE] ../../libsdcc_mc30/_divschar.c:45:  _return($10) :
                      00316 ;;[ICODE] ../../libsdcc_mc30/_divschar.c:45:    eproc __divschar [k1 lr0:0 so:0]{ ia0 a2p0 re0 rm0 nos0 ru0 dp0}{char function ( char fixed, char fixed) fixed}
0084                  00317 _00114_DS_
0084   000C           00318         RETURN  
                      00319 ; exit point of __divschar
                      00320 
                      00321 
                      00322 ;       code size estimation:
                      00323 ;         133+    0 =   133 instructions (  266 byte)
                      00324 
                      00325         end
gpasm-2.0.0_beta2 (Nov  6 2017)_divschar.asm      2018-1-12  13:52:47          PAGE  2


SYMBOL TABLE
  LABEL                             VALUE

BUZE                              00000005
C                                 00000000
DBLCK                             00000004
DC                                00000001
DDR0                              00000045
DDR00                             00000000
DDR01                             00000001
DDR02                             00000002
DDR03                             00000003
DDR1                              00000046
DDR10                             00000000
DDR11                             00000001
DDR12                             00000002
DDR13                             00000003
DDR14                             00000004
DDR15                             00000005
DDR16                             00000006
DDR17                             00000007
EIS                               00000006
FSR                               00000004
FSR0                              00000000
FSR1                              00000001
FSR2                              00000002
FSR3                              00000003
FSR4                              00000004
FSR5                              00000005
GIE                               00000007
INDF                              00000000
INDF0                             00000000
INDF1                             00000001
INDF2                             00000002
INDF3                             00000003
INDF4                             00000004
INDF5                             00000005
INDF6                             00000006
INDF7                             00000007
INTECON                           0000000E
INTFLAG                           0000000F
INTIE                             00000002
INTIF                             00000002
INTOM                             00000006
KBIE                              00000001
KBIF                              00000001
KBIM                              00000009
KBIM0                             00000000
KBIM1                             00000001
KBIM2                             00000002
KBIM3                             00000003
KBIM4                             00000004
KBIM5                             00000005
KBIM6                             00000006
KBIM7                             00000007
LVDEN                             00000000
LVDF                              00000005
LVDSEL0                           00000001
LVDSEL1                           00000002
LVDSEL2                           00000003
LVDSEL3                           00000004
MCR                               00000008
ODCON                             0000000C
P0                                00000005
P00D                              00000000
P00PD                             00000000
P01D                              00000001
P01PD                             00000001
P02D                              00000002
P02PD                             00000002
P03D                              00000003
P03PD                             00000003
P1                                00000006
P10D                              00000000
P10OD                             00000000
P10PD                             00000004
P10PU                             00000000
P11D                              00000001
P11OD                             00000001
P11PD                             00000005
P11PU                             00000001
P12D                              00000002
P12OD                             00000002
P12PD                             00000006
P12PU                             00000002
P13D                              00000003
P13PU                             00000003
P14D                              00000004
P14OD                             00000004
P14PU                             00000004
P15D                              00000005
P15OD                             00000005
P15PU                             00000005
P16D                              00000006
P16OD                             00000006
P16PU                             00000006
P17D                              00000007
P17OD                             00000007
P17PU                             00000007
PC0                               00000000
PC1                               00000001
PC2                               00000002
PC3                               00000003
PC4                               00000004
PC5                               00000005
PC6                               00000006
PC7                               00000007
PCH0                              00000000
PCH1                              00000001
PCL                               00000002
PCLATH                            0000000A
PD                                00000003
PDCON                             0000000B
PMW0OE                            00000007
PMW1E                             00000001
PUCON                             0000000D
PWM0E                             00000006
PWM1OE                            00000006
PWM2E                             00000000
PWM2OE                            00000005
PWMCR                             00000048
PWMINV                            00000002
PWMMD                             00000003
RST                               00000007
STATUS                            00000003
STK00                             00000000
STK01                             00000000
STK02                             00000000
STK03                             00000000
STK04                             00000000
STK05                             00000000
STK06                             00000000
T0C0                              00000000
T0C1                              00000001
T0C2                              00000002
T0C3                              00000003
T0C4                              00000004
T0C5                              00000005
T0C6                              00000006
T0C7                              00000007
T0CNT                             00000001
T0CR                              00000041
T0IE                              00000000
T0IF                              00000000
T0PR0                             00000000
T0PR1                             00000001
T0PR2                             00000002
T0PTA                             00000003
T0PTS                             00000005
T0SE                              00000004
T1C0                              00000000
T1C1                              00000001
T1C2                              00000002
T1C3                              00000003
T1C4                              00000004
T1C5                              00000005
T1C6                              00000006
T1C7                              00000007
T1CNT                             0000004D
T1CR                              0000004C
T1DAT0                            0000004F
T1DAT00                           00000000
T1DAT01                           00000001
T1DAT02                           00000002
T1DAT03                           00000003
T1DAT04                           00000004
T1DAT05                           00000005
T1DAT06                           00000006
T1DAT07                           00000007
T1DAT1                            00000049
T1DAT10                           00000000
T1DAT11                           00000001
T1DAT12                           00000002
T1DAT13                           00000003
T1DAT14                           00000004
T1DAT15                           00000005
T1DAT16                           00000006
T1DAT17                           00000007
T1DAT2                            0000004A
T1DAT20                           00000000
T1DAT21                           00000001
T1DAT22                           00000002
T1DAT23                           00000003
T1DAT24                           00000004
T1DAT25                           00000005
T1DAT26                           00000006
T1DAT27                           00000007
T1IE                              00000001
T1IF                              00000000
T1LOAD                            0000004E
T1LOAD0                           00000000
T1LOAD1                           00000001
T1LOAD2                           00000002
T1LOAD3                           00000003
T1LOAD4                           00000004
T1LOAD5                           00000005
T1LOAD6                           00000006
T1LOAD7                           00000007
T1PR0                             00000000
T1PR1                             00000001
T1PR2                             00000002
T1PTS0                            00000003
T1PTS1                            00000004
TBS                               00000007
TC1EN                             00000007
TM0CR                             0000004B
TO                                00000004
WDTEN                             00000007
Z                                 00000002
_00106_DS_                        00000031
_00109_DS_                        00000071
_00112_DS_                        0000004F
_00114_DS_                        00000084
_CONFIG0                          00002000
_CONFIG1                          00002001
__30P011                          00000001
__divschar                        00000000
__divuchar                        00000000
r0x1000                           00000000
r0x1001                           00000001
r0x1002                           00000002
r0x1003                           00000003
r0x1004                           00000004
r0x1005                           00000005
r0x1006                           00000006
r0x1007                           00000007
r0x1008                           00000008

Errors   :     0
Warnings :     0 reported,     0 suppressed
Messages :     0 reported,     0 suppressed

