gpasm-2.0.0_beta2 (Nov  6 2017)_mulchar.asm       2018-1-12  13:53:01          PAGE  1


LOC  OBJECT CODE     LINE SOURCE TEXT
  VALUE

                      00001 ;--------------------------------------------------------
                      00002 ; File Created by SN-SDCC : SinoMCU ANSI-C Compiler
                      00003 ; Version 1.1.0 (Dec 19 2017) (MINGW32)
                      00004 ; This file was generated Fri Jan 12 13:53:01 2018
                      00005 ;--------------------------------------------------------
                      00006 ; MC30 port for the RISC core
                      00007 ;--------------------------------------------------------
                      00008 ;       .file   "../../libsdcc_mc30/_mulchar.c"
                      00009         list    p=0311
                      00010         radix dec
                      00011         include "0311.inc"
                      00001                 LIST
                      00002 ;mc30p6080.inc    Standard Header File, Version 1.00 by Sinomcu
                      00326                 LIST
                      00012 ;--------------------------------------------------------
                      00013 ; external declarations
                      00014 ;--------------------------------------------------------
                      00015 
                      00016         extern STK06
                      00017         extern STK05
                      00018         extern STK04
                      00019         extern STK03
                      00020         extern STK02
                      00021         extern STK01
                      00022         extern STK00
                      00023 ;--------------------------------------------------------
                      00024 ; global declarations
                      00025 ;--------------------------------------------------------
                      00026         global  __mulchar
                      00027 
                      00028 ;--------------------------------------------------------
                      00029 ; global definitions
                      00030 ;--------------------------------------------------------
                      00031 ;--------------------------------------------------------
                      00032 ; absolute symbol definitions
                      00033 ;--------------------------------------------------------
                      00034 ;--------------------------------------------------------
                      00035 ; compiler-defined variables
                      00036 ;--------------------------------------------------------
                      00037 UDL__mulchar_0  udata
0000                  00038 r0x1000 res     1
0000                  00039 r0x1001 res     1
0001                  00040 r0x1002 res     1
0001                  00041 r0x1003 res     1
0002                  00042 r0x1004 res     1
                      00043 ;--------------------------------------------------------
                      00044 ; initialized data
                      00045 ;--------------------------------------------------------
                      00046 
                      00047 ;@Allocation info for local variables in function '_mulchar'
                      00048 ;@_mulchar _mulchar                  Allocated to registers ;size:2
                      00049 ;@_mulchar b                         Allocated to registers r0x1001 ;size:1
                      00050 ;@_mulchar a                         Allocated to registers r0x1000 ;size:1
                      00051 ;@_mulchar result                    Allocated to registers r0x1002 ;size:1
                      00052 ;@_mulchar i                         Allocated to registers r0x1003 ;size:1
                      00053 ;@end Allocation info for local variables in function '_mulchar';
                      00054 
                      00055 ;--------------------------------------------------------
                      00056 ; overlayable items in internal ram 
                      00057 ;--------------------------------------------------------
                      00058 ;       udata_ovr
                      00059 ;--------------------------------------------------------
                      00060 ; code
                      00061 ;--------------------------------------------------------
                      00062 code__mulchar   code
                      00063 ;***
                      00064 ;  pBlock Stats: dbName = C
                      00065 ;***
                      00066 ;entry:  __mulchar      ;Function start
                      00067 ; 2 exit points
                      00068 ;has an exit
                      00069 ;6 compiler assigned registers:
                      00070 ;   r0x1000
                      00071 ;   STK00
                      00072 ;   r0x1001
                      00073 ;   r0x1002
                      00074 ;   r0x1003
                      00075 ;   r0x1004
                      00076 ;; Starting pCode block
                      00077 ;;[ICODE] ../../libsdcc_mc30/_mulchar.c:33:  _entry($16) :
                      00078 ;;[ICODE] ../../libsdcc_mc30/_mulchar.c:33:     proc __mulchar [k1 lr0:0 so:0]{ ia0 a2p0 re0 rm0 nos0 ru0 dp0}{char function ( char fixed, char fixed) fixed}
0000                  00079 __mulchar       ;Function start
                      00080 ; 2 exit points
                      00081 ;;[ICODE] ../../libsdcc_mc30/_mulchar.c:33: iTemp0 [k2 lr3:23 so:0]{ ia0 a2p0 re1 rm0 nos0 ru0 dp0}{char fixed}{ sir@ __mulchar_a_1_1}[r0x1000 ] = recv __mulchar [k1 lr0:0 so:0]{ ia0 a2p0 re0 rm0 nos0 ru0 dp0}{char function ( char fixed, char fixed) fixed}
                      00082 ;       .line   33; "../../libsdcc_mc30/_mulchar.c"     _mulchar (char a, char b)
0000   1580           00083         MOVRA   r0x1000
                      00084 ;;[ICODE] ../../libsdcc_mc30/_mulchar.c:33: iTemp1 [k4 lr4:23 so:0]{ ia0 a2p0 re1 rm0 nos0 ru0 dp0}{char fixed}{ sir@ __mulchar_b_1_1}[r0x1001 ] = recv __mulchar [k1 lr0:0 so:0]{ ia0 a2p0 re0 rm0 nos0 ru0 dp0}{char function ( char fixed, char fixed) fixed}
0001   1600           00085         MOVAR   STK00
0002   1580           00086         MOVRA   r0x1001
                      00087 ;;[ICODE] ../../libsdcc_mc30/_mulchar.c:35:     iTemp2 [k6 lr5:24 so:0]{ ia0 a2p0 re1 rm0 nos0 ru0 dp0}{char fixed}{ sir@ __mulchar_result_1_2}[r0x1002 ] := 0x0 {const-unsigned-char literal}
                      00088 ;       .line   35; "../../libsdcc_mc30/_mulchar.c"     char result = 0;
0003   1D80           00089         CLRR    r0x1002
                      00090 ;;[ICODE] ../../libsdcc_mc30/_mulchar.c:39:     iTemp3 [k8 lr6:23 so:0]{ ia0 a2p0 re1 rm0 nos0 ru0 dp0}{unsigned-char fixed}{ sir@ __mulchar_i_1_2}[r0x1003 ] := 0x8 {unsigned-char literal}
                      00091 ;       .line   39; "../../libsdcc_mc30/_mulchar.c"     for (i = 0; i < 8u; i++) {
0004   0B08           00092         MOVAI   0x08
0005   1580           00093         MOVRA   r0x1003
                      00094 ;;[ICODE] ../../libsdcc_mc30/_mulchar.c:39:  _forcontinue_0($14) :
                      00095 ;;[ICODE] ../../libsdcc_mc30/_mulchar.c:41:     iTemp4 [k10 lr9:10 so:0]{ ia0 a2p0 re0 rm0 nos0 ru0 dp0}{char register} = iTemp0 [k2 lr3:23 so:0]{ ia0 a2p0 re1 rm0 nos0 ru0 dp0}{char fixed}{ sir@ __mulchar_a_1_1}[r0x1000 ] & 0x1 {char literal}
0006                  00096 _00118_DS_
                      00097 ;       .line   41; "../../libsdcc_mc30/_mulchar.c"     if (a & (unsigned char)0x0001u) result += b;
0006   3000           00098         JBSET   r0x1000,0
0007   2800           00099         GOTO    _00114_DS_
                      00100 ;;[ICODE] ../../libsdcc_mc30/_mulchar.c:41:     if iTemp4 [k10 lr9:10 so:0]{ ia0 a2p0 re0 rm0 nos0 ru0 dp0}{char register} == 0 goto _iffalse_3($10)
                      00101 ;;[ICODE] ../../libsdcc_mc30/_mulchar.c:41:     iTemp2 [k6 lr5:24 so:0]{ ia0 a2p0 re1 rm0 nos0 ru0 dp0}{char fixed}{ sir@ __mulchar_result_1_2}[r0x1002 ] = iTemp2 [k6 lr5:24 so:0]{ ia0 a2p0 re1 rm0 nos0 ru0 dp0}{char fixed}{ sir@ __mulchar_result_1_2}[r0x1002 ] + iTemp1 [k4 lr4:23 so:0]{ ia0 a2p0 re1 rm0 nos0 ru0 dp0}{char fixed}{ sir@ __mulchar_b_1_1}[r0x1001 ]
0008   1600           00102         MOVAR   r0x1001
0009   1F80           00103         ADDRA   r0x1002
                      00104 ;;[ICODE] ../../libsdcc_mc30/_mulchar.c:44:  _iffalse_3($10) :
                      00105 ;;[ICODE] ../../libsdcc_mc30/_mulchar.c:45:     iTemp12 [k18 lr14:15 so:0]{ ia0 a2p0 re0 rm0 nos0 ru0 dp0}{unsigned-char fixed}[r0x1004 ] = (unsigned-char fixed)iTemp0 [k2 lr3:23 so:0]{ ia0 a2p0 re1 rm0 nos0 ru0 dp0}{char fixed}{ sir@ __mulchar_a_1_1}[r0x1000 ]
000A                  00106 _00114_DS_
                      00107 ;       .line   45; "../../libsdcc_mc30/_mulchar.c"     a = ((unsigned char)a) >> 1u;
000A   1600           00108         MOVAR   r0x1000
000B   1580           00109         MOVRA   r0x1004
                      00110 ;;[ICODE] ../../libsdcc_mc30/_mulchar.c:45:     iTemp0 [k2 lr3:23 so:0]{ ia0 a2p0 re1 rm0 nos0 ru0 dp0}{char fixed}{ sir@ __mulchar_a_1_1}[r0x1000 ] = iTemp12 [k18 lr14:15 so:0]{ ia0 a2p0 re0 rm0 nos0 ru0 dp0}{unsigned-char fixed}[r0x1004 ] >> 0x1 {const-unsigned-int literal}
                      00111 ;;shiftRight_Left2ResultLit:5216: shCount=1, size=1, sign=0, same=0, offr=0
000C   3C03           00112         BCLR    STATUS,0
000D   1300           00113         RRAR    r0x1004
000E   1580           00114         MOVRA   r0x1000
                      00115 ;;[ICODE] ../../libsdcc_mc30/_mulchar.c:46:     iTemp15 [k21 lr17:18 so:0]{ ia0 a2p0 re0 rm0 nos0 ru0 dp0}{unsigned-int register}[r0x1004 r0x1005 ] = iTemp1 [k4 lr4:23 so:0]{ ia0 a2p0 re1 rm0 nos0 ru0 dp0}{char fixed}{ sir@ __mulchar_b_1_1}[r0x1001 ] << 0x1 {const-unsigned-int literal}
                      00116 ;       .line   46; "../../libsdcc_mc30/_mulchar.c"     b <<= 1u;
000F   3C03           00117         BCLR    STATUS,0
0010   1400           00118         RLAR    r0x1001
0011   1580           00119         MOVRA   r0x1001
0012   1580           00120         MOVRA   r0x1004
                      00121 ;;[ICODE] ../../libsdcc_mc30/_mulchar.c:46:     iTemp1 [k4 lr4:23 so:0]{ ia0 a2p0 re1 rm0 nos0 ru0 dp0}{char fixed}{ sir@ __mulchar_b_1_1}[r0x1001 ] = (char fixed)iTemp15 [k21 lr17:18 so:0]{ ia0 a2p0 re0 rm0 nos0 ru0 dp0}{unsigned-int register}[r0x1004 r0x1005 ]
                      00122 ;;99    MOVAR   r0x1004
                      00123 ;;[ICODE] ../../libsdcc_mc30/_mulchar.c:46:     iTemp17 [k23 lr20:21 so:0]{ ia0 a2p0 re0 rm0 nos0 ru0 dp0}{char register}[r0x1004 ] = (char register)iTemp3 [k8 lr6:23 so:0]{ ia0 a2p0 re1 rm0 nos0 ru0 dp0}{unsigned-char fixed}{ sir@ __mulchar_i_1_2}[r0x1003 ]
0013   1600           00124         MOVAR   r0x1003
0014   1580           00125         MOVRA   r0x1004
                      00126 ;;[ICODE] ../../libsdcc_mc30/_mulchar.c:46:     iTemp3 [k8 lr6:23 so:0]{ ia0 a2p0 re1 rm0 nos0 ru0 dp0}{unsigned-char fixed}{ sir@ __mulchar_i_1_2}[r0x1003 ] = iTemp17 [k23 lr20:21 so:0]{ ia0 a2p0 re0 rm0 nos0 ru0 dp0}{char register}[r0x1004 ] - 0x1 {const-char literal}
0015   1B00           00127         DECAR   r0x1004
0016   1580           00128         MOVRA   r0x1003
                      00129 ;;[ICODE] ../../libsdcc_mc30/_mulchar.c:39:     if iTemp3 [k8 lr6:23 so:0]{ ia0 a2p0 re1 rm0 nos0 ru0 dp0}{unsigned-char fixed}{ sir@ __mulchar_i_1_2}[r0x1003 ] != 0 goto _forcontinue_0($14)
                      00130 ;       .line   39; "../../libsdcc_mc30/_mulchar.c"     for (i = 0; i < 8u; i++) {
0017   0B00           00131         MOVAI   0x00
0018   1700           00132         ORAR    r0x1003
0019   3103           00133         JBSET   STATUS,2
001A   2800           00134         GOTO    _00118_DS_
                      00135 ;;[ICODE] ../../libsdcc_mc30/_mulchar.c:49:     ret iTemp2 [k6 lr5:24 so:0]{ ia0 a2p0 re1 rm0 nos0 ru0 dp0}{char fixed}{ sir@ __mulchar_result_1_2}[r0x1002 ]
                      00136 ;       .line   49; "../../libsdcc_mc30/_mulchar.c"     return result;
001B   1600           00137         MOVAR   r0x1002
                      00138 ;;[ICODE] ../../libsdcc_mc30/_mulchar.c:49:  _return($15) :
                      00139 ;;[ICODE] ../../libsdcc_mc30/_mulchar.c:49:     eproc __mulchar [k1 lr0:0 so:0]{ ia0 a2p0 re0 rm0 nos0 ru0 dp0}{char function ( char fixed, char fixed) fixed}
001C   000C           00140         RETURN  
                      00141 ; exit point of __mulchar
                      00142 
                      00143 
                      00144 ;       code size estimation:
                      00145 ;          29+    0 =    29 instructions (   58 byte)
                      00146 
                      00147         end
gpasm-2.0.0_beta2 (Nov  6 2017)_mulchar.asm       2018-1-12  13:53:01          PAGE  2


SYMBOL TABLE
  LABEL                             VALUE

BUZE                              00000005
C                                 00000000
DBLCK                             00000004
DC                                00000001
DDR0                              00000045
DDR00                             00000000
DDR01                             00000001
DDR02                             00000002
DDR03                             00000003
DDR1                              00000046
DDR10                             00000000
DDR11                             00000001
DDR12                             00000002
DDR13                             00000003
DDR14                             00000004
DDR15                             00000005
DDR16                             00000006
DDR17                             00000007
EIS                               00000006
FSR                               00000004
FSR0                              00000000
FSR1                              00000001
FSR2                              00000002
FSR3                              00000003
FSR4                              00000004
FSR5                              00000005
GIE                               00000007
INDF                              00000000
INDF0                             00000000
INDF1                             00000001
INDF2                             00000002
INDF3                             00000003
INDF4                             00000004
INDF5                             00000005
INDF6                             00000006
INDF7                             00000007
INTECON                           0000000E
INTFLAG                           0000000F
INTIE                             00000002
INTIF                             00000002
INTOM                             00000006
KBIE                              00000001
KBIF                              00000001
KBIM                              00000009
KBIM0                             00000000
KBIM1                             00000001
KBIM2                             00000002
KBIM3                             00000003
KBIM4                             00000004
KBIM5                             00000005
KBIM6                             00000006
KBIM7                             00000007
LVDEN                             00000000
LVDF                              00000005
LVDSEL0                           00000001
LVDSEL1                           00000002
LVDSEL2                           00000003
LVDSEL3                           00000004
MCR                               00000008
ODCON                             0000000C
P0                                00000005
P00D                              00000000
P00PD                             00000000
P01D                              00000001
P01PD                             00000001
P02D                              00000002
P02PD                             00000002
P03D                              00000003
P03PD                             00000003
P1                                00000006
P10D                              00000000
P10OD                             00000000
P10PD                             00000004
P10PU                             00000000
P11D                              00000001
P11OD                             00000001
P11PD                             00000005
P11PU                             00000001
P12D                              00000002
P12OD                             00000002
P12PD                             00000006
P12PU                             00000002
P13D                              00000003
P13PU                             00000003
P14D                              00000004
P14OD                             00000004
P14PU                             00000004
P15D                              00000005
P15OD                             00000005
P15PU                             00000005
P16D                              00000006
P16OD                             00000006
P16PU                             00000006
P17D                              00000007
P17OD                             00000007
P17PU                             00000007
PC0                               00000000
PC1                               00000001
PC2                               00000002
PC3                               00000003
PC4                               00000004
PC5                               00000005
PC6                               00000006
PC7                               00000007
PCH0                              00000000
PCH1                              00000001
PCL                               00000002
PCLATH                            0000000A
PD                                00000003
PDCON                             0000000B
PMW0OE                            00000007
PMW1E                             00000001
PUCON                             0000000D
PWM0E                             00000006
PWM1OE                            00000006
PWM2E                             00000000
PWM2OE                            00000005
PWMCR                             00000048
PWMINV                            00000002
PWMMD                             00000003
RST                               00000007
STATUS                            00000003
STK00                             00000000
STK01                             00000000
STK02                             00000000
STK03                             00000000
STK04                             00000000
STK05                             00000000
STK06                             00000000
T0C0                              00000000
T0C1                              00000001
T0C2                              00000002
T0C3                              00000003
T0C4                              00000004
T0C5                              00000005
T0C6                              00000006
T0C7                              00000007
T0CNT                             00000001
T0CR                              00000041
T0IE                              00000000
T0IF                              00000000
T0PR0                             00000000
T0PR1                             00000001
T0PR2                             00000002
T0PTA                             00000003
T0PTS                             00000005
T0SE                              00000004
T1C0                              00000000
T1C1                              00000001
T1C2                              00000002
T1C3                              00000003
T1C4                              00000004
T1C5                              00000005
T1C6                              00000006
T1C7                              00000007
T1CNT                             0000004D
T1CR                              0000004C
T1DAT0                            0000004F
T1DAT00                           00000000
T1DAT01                           00000001
T1DAT02                           00000002
T1DAT03                           00000003
T1DAT04                           00000004
T1DAT05                           00000005
T1DAT06                           00000006
T1DAT07                           00000007
T1DAT1                            00000049
T1DAT10                           00000000
T1DAT11                           00000001
T1DAT12                           00000002
T1DAT13                           00000003
T1DAT14                           00000004
T1DAT15                           00000005
T1DAT16                           00000006
T1DAT17                           00000007
T1DAT2                            0000004A
T1DAT20                           00000000
T1DAT21                           00000001
T1DAT22                           00000002
T1DAT23                           00000003
T1DAT24                           00000004
T1DAT25                           00000005
T1DAT26                           00000006
T1DAT27                           00000007
T1IE                              00000001
T1IF                              00000000
T1LOAD                            0000004E
T1LOAD0                           00000000
T1LOAD1                           00000001
T1LOAD2                           00000002
T1LOAD3                           00000003
T1LOAD4                           00000004
T1LOAD5                           00000005
T1LOAD6                           00000006
T1LOAD7                           00000007
T1PR0                             00000000
T1PR1                             00000001
T1PR2                             00000002
T1PTS0                            00000003
T1PTS1                            00000004
TBS                               00000007
TC1EN                             00000007
TM0CR                             0000004B
TO                                00000004
WDTEN                             00000007
Z                                 00000002
_00114_DS_                        0000000A
_00118_DS_                        00000006
_CONFIG0                          00002000
_CONFIG1                          00002001
__30P011                          00000001
__mulchar                         00000000
r0x1000                           00000000
r0x1001                           00000001
r0x1002                           00000002
r0x1003                           00000003
r0x1004                           00000004

Errors   :     0
Warnings :     0 reported,     0 suppressed
Messages :     0 reported,     0 suppressed

