gpasm-2.0.0_beta2 (Nov  6 2017)_mullong.asm       2018-1-12  13:53:03          PAGE  1


LOC  OBJECT CODE     LINE SOURCE TEXT
  VALUE

                      00001 ;--------------------------------------------------------
                      00002 ; File Created by SN-SDCC : SinoMCU ANSI-C Compiler
                      00003 ; Version 1.1.0 (Dec 19 2017) (MINGW32)
                      00004 ; This file was generated Fri Jan 12 13:53:02 2018
                      00005 ;--------------------------------------------------------
                      00006 ; MC30 port for the RISC core
                      00007 ;--------------------------------------------------------
                      00008 ;       .file   "../../libsdcc_mc30/_mullong.c"
                      00009         list    p=0311
                      00010         radix dec
                      00011         include "0311.inc"
                      00001                 LIST
                      00002 ;mc30p6080.inc    Standard Header File, Version 1.00 by Sinomcu
                      00326                 LIST
                      00012 ;--------------------------------------------------------
                      00013 ; external declarations
                      00014 ;--------------------------------------------------------
                      00015 
                      00016         extern STK06
                      00017         extern STK05
                      00018         extern STK04
                      00019         extern STK03
                      00020         extern STK02
                      00021         extern STK01
                      00022         extern STK00
                      00023 ;--------------------------------------------------------
                      00024 ; global declarations
                      00025 ;--------------------------------------------------------
                      00026         global  __mullong
                      00027 
                      00028 ;--------------------------------------------------------
                      00029 ; global definitions
                      00030 ;--------------------------------------------------------
                      00031 ;--------------------------------------------------------
                      00032 ; absolute symbol definitions
                      00033 ;--------------------------------------------------------
                      00034 ;--------------------------------------------------------
                      00035 ; compiler-defined variables
                      00036 ;--------------------------------------------------------
                      00037 UDL__mullong_0  udata
0000                  00038 r0x1003 res     1
0000                  00039 r0x1002 res     1
0001                  00040 r0x1001 res     1
0001                  00041 r0x1000 res     1
0002                  00042 r0x1007 res     1
0002                  00043 r0x1006 res     1
0003                  00044 r0x1005 res     1
0003                  00045 r0x1004 res     1
0004                  00046 r0x1008 res     1
0004                  00047 r0x1009 res     1
0005                  00048 r0x100A res     1
0005                  00049 r0x100B res     1
0006                  00050 r0x100C res     1
0006                  00051 r0x100D res     1
0007                  00052 r0x100E res     1
0007                  00053 r0x100F res     1
0008                  00054 r0x1010 res     1
                      00055 ;--------------------------------------------------------
                      00056 ; initialized data
                      00057 ;--------------------------------------------------------
                      00058 
                      00059 ;@Allocation info for local variables in function '_mullong'
                      00060 ;@_mullong b                         Allocated to registers r0x1007 r0x1006 r0x1005 r0x1004 ;size:4
                      00061 ;@_mullong a                         Allocated to registers r0x1003 r0x1002 r0x1001 r0x1000 ;size:4
                      00062 ;@_mullong result                    Allocated to registers r0x1008 r0x1009 r0x100A r0x100B ;size:4
                      00063 ;@_mullong i                         Allocated to registers r0x100C ;size:1
                      00064 ;@end Allocation info for local variables in function '_mullong';
                      00065 
                      00066 ;--------------------------------------------------------
                      00067 ; overlayable items in internal ram 
                      00068 ;--------------------------------------------------------
                      00069 ;       udata_ovr
                      00070 ;--------------------------------------------------------
                      00071 ; code
                      00072 ;--------------------------------------------------------
                      00073 code__mullong   code
                      00074 ;***
                      00075 ;  pBlock Stats: dbName = C
                      00076 ;***
                      00077 ;entry:  __mullong      ;Function start
                      00078 ; 2 exit points
                      00079 ;has an exit
                      00080 ;24 compiler assigned registers:
                      00081 ;   r0x1000
                      00082 ;   STK00
                      00083 ;   r0x1001
                      00084 ;   STK01
                      00085 ;   r0x1002
                      00086 ;   STK02
                      00087 ;   r0x1003
                      00088 ;   STK03
                      00089 ;   r0x1004
                      00090 ;   STK04
                      00091 ;   r0x1005
                      00092 ;   STK05
                      00093 ;   r0x1006
                      00094 ;   STK06
                      00095 ;   r0x1007
                      00096 ;   r0x1008
                      00097 ;   r0x1009
                      00098 ;   r0x100A
                      00099 ;   r0x100B
                      00100 ;   r0x100C
                      00101 ;   r0x100D
                      00102 ;   r0x100E
                      00103 ;   r0x100F
                      00104 ;   r0x1010
                      00105 ;; Starting pCode block
                      00106 ;;[ICODE] ../../libsdcc_mc30/_mullong.c:33:  _entry($16) :
                      00107 ;;[ICODE] ../../libsdcc_mc30/_mullong.c:33:     proc __mullong [k1 lr0:0 so:0]{ ia0 a2p0 re0 rm0 nos0 ru0 dp0}{long-int function ( long-int fixed, long-int fixed) fixed}
0000                  00108 __mullong       ;Function start
                      00109 ; 2 exit points
                      00110 ;;[ICODE] ../../libsdcc_mc30/_mullong.c:33: iTemp0 [k2 lr3:43 so:0]{ ia0 a2p0 re1 rm0 nos0 ru0 dp0}{long-int fixed}{ sir@ __mullong_a_1_1}[r0x1000 r0x1001 r0x1002 r0x1003 ] = recv __mullong [k1 lr0:0 so:0]{ ia0 a2p0 re0 rm0 nos0 ru0 dp0}{long-int function ( long-int fixed, long-int fixed) fixed}
                      00111 ;       .line   33; "../../libsdcc_mc30/_mullong.c"     _mullong (long a, long b)
0000   1580           00112         MOVRA   r0x1000
0001   1600           00113         MOVAR   STK00
0002   1580           00114         MOVRA   r0x1001
0003   1600           00115         MOVAR   STK01
0004   1580           00116         MOVRA   r0x1002
0005   1600           00117         MOVAR   STK02
0006   1580           00118         MOVRA   r0x1003
                      00119 ;;[ICODE] ../../libsdcc_mc30/_mullong.c:33: iTemp1 [k4 lr4:43 so:0]{ ia0 a2p0 re1 rm0 nos0 ru0 dp0}{long-int fixed}{ sir@ __mullong_b_1_1}[r0x1004 r0x1005 r0x1006 r0x1007 ] = recv __mullong [k1 lr0:0 so:0]{ ia0 a2p0 re0 rm0 nos0 ru0 dp0}{long-int function ( long-int fixed, long-int fixed) fixed}
0007   1600           00120         MOVAR   STK03
0008   1580           00121         MOVRA   r0x1004
0009   1600           00122         MOVAR   STK04
000A   1580           00123         MOVRA   r0x1005
000B   1600           00124         MOVAR   STK05
000C   1580           00125         MOVRA   r0x1006
000D   1600           00126         MOVAR   STK06
000E   1580           00127         MOVRA   r0x1007
                      00128 ;;[ICODE] ../../libsdcc_mc30/_mullong.c:35:     iTemp2 [k6 lr5:44 so:0]{ ia0 a2p0 re1 rm0 nos0 ru0 dp0}{long-int fixed}{ sir@ __mullong_result_1_2}[r0x1008 r0x1009 r0x100A r0x100B ] := 0x0 {long-int literal}
                      00129 ;       .line   35; "../../libsdcc_mc30/_mullong.c"     long result = 0;
000F   1D80           00130         CLRR    r0x1008
0010   1D80           00131         CLRR    r0x1009
0011   1D80           00132         CLRR    r0x100A
0012   1D80           00133         CLRR    r0x100B
                      00134 ;;[ICODE] ../../libsdcc_mc30/_mullong.c:39:     iTemp3 [k8 lr6:43 so:0]{ ia0 a2p0 re1 rm0 nos0 ru0 dp0}{unsigned-char fixed}{ sir@ __mullong_i_1_2}[r0x100C ] := 0x8 {unsigned-char literal}
                      00135 ;       .line   39; "../../libsdcc_mc30/_mullong.c"     for (i = 0; i < 8u; i++) {
0013   0B08           00136         MOVAI   0x08
0014   1580           00137         MOVRA   r0x100C
                      00138 ;;[ICODE] ../../libsdcc_mc30/_mullong.c:39:  _forcontinue_0($14) :
                      00139 ;;[ICODE] ../../libsdcc_mc30/_mullong.c:41:     iTemp4 [k10 lr9:10 so:0]{ ia0 a2p0 re0 rm0 nos0 ru0 dp0}{long-int fixed} = iTemp0 [k2 lr3:43 so:0]{ ia0 a2p0 re1 rm0 nos0 ru0 dp0}{long-int fixed}{ sir@ __mullong_a_1_1}[r0x1000 r0x1001 r0x1002 r0x1003 ] & 0x1 {long-int literal}
0015                  00140 _00118_DS_
                      00141 ;       .line   41; "../../libsdcc_mc30/_mullong.c"     if (a & 0x0001u) result += b;
0015   3000           00142         JBSET   r0x1003,0
0016   2800           00143         GOTO    _00109_DS_
                      00144 ;;[ICODE] ../../libsdcc_mc30/_mullong.c:41:     if iTemp4 [k10 lr9:10 so:0]{ ia0 a2p0 re0 rm0 nos0 ru0 dp0}{long-int fixed} == 0 goto _andif_0($5)
                      00145 ;;[ICODE] ../../libsdcc_mc30/_mullong.c:41:     iTemp2 [k6 lr5:44 so:0]{ ia0 a2p0 re1 rm0 nos0 ru0 dp0}{long-int fixed}{ sir@ __mullong_result_1_2}[r0x1008 r0x1009 r0x100A r0x100B ] = iTemp2 [k6 lr5:44 so:0]{ ia0 a2p0 re1 rm0 nos0 ru0 dp0}{long-int fixed}{ sir@ __mullong_result_1_2}[r0x1008 r0x1009 r0x100A r0x100B ] + iTemp1 [k4 lr4:43 so:0]{ ia0 a2p0 re1 rm0 nos0 ru0 dp0}{long-int fixed}{ sir@ __mullong_b_1_1}[r0x1004 r0x1005 r0x1006 r0x1007 ]
0017   1600           00146         MOVAR   r0x1007
0018   1F80           00147         ADDRA   r0x1008
0019   1600           00148         MOVAR   r0x1006
001A   3403           00149         JBCLR   STATUS,0
001B   1800           00150         JZAR    r0x1006
001C   1F80           00151         ADDRA   r0x1009
001D   1600           00152         MOVAR   r0x1005
001E   3403           00153         JBCLR   STATUS,0
001F   1800           00154         JZAR    r0x1005
0020   1F80           00155         ADDRA   r0x100A
0021   1600           00156         MOVAR   r0x1004
0022   3403           00157         JBCLR   STATUS,0
0023   1800           00158         JZAR    r0x1004
0024   1F80           00159         ADDRA   r0x100B
                      00160 ;;[ICODE] ../../libsdcc_mc30/_mullong.c:42:  _andif_0($5) :
                      00161 ;;[ICODE] ../../libsdcc_mc30/_mullong.c:42:     iTemp6 [k12 lr14:15 so:0]{ ia0 a2p0 re0 rm0 nos0 ru0 dp0}{unsigned-long-int register}[r0x100D r0x100E r0x100F r0x1010 ] = (unsigned-long-int register)iTemp0 [k2 lr3:43 so:0]{ ia0 a2p0 re1 rm0 nos0 ru0 dp0}{long-int fixed}{ sir@ __mullong_a_1_1}[r0x1000 r0x1001 r0x1002 r0x1003 ]
0025                  00162 _00109_DS_
                      00163 ;       .line   42; "../../libsdcc_mc30/_mullong.c"     if (sizeof (a) > 1 && (a & 0x00000100ul)) result += (b << 8u);
0025   1600           00164         MOVAR   r0x1003
0026   1580           00165         MOVRA   r0x100D
0027   1600           00166         MOVAR   r0x1002
0028   1580           00167         MOVRA   r0x100E
0029   1600           00168         MOVAR   r0x1001
002A   1580           00169         MOVRA   r0x100F
002B   1600           00170         MOVAR   r0x1000
002C   1580           00171         MOVRA   r0x1010
                      00172 ;;[ICODE] ../../libsdcc_mc30/_mullong.c:42:     iTemp7 [k13 lr15:16 so:0]{ ia0 a2p0 re0 rm0 nos0 ru0 dp0}{unsigned-long-int register} = iTemp6 [k12 lr14:15 so:0]{ ia0 a2p0 re0 rm0 nos0 ru0 dp0}{unsigned-long-int register}[r0x100D r0x100E r0x100F r0x1010 ] & 0x100 {const-unsigned-long-int literal}
002D   3000           00173         JBSET   r0x100E,0
002E   2800           00174         GOTO    _00112_DS_
                      00175 ;;[ICODE] ../../libsdcc_mc30/_mullong.c:42:     if iTemp7 [k13 lr15:16 so:0]{ ia0 a2p0 re0 rm0 nos0 ru0 dp0}{unsigned-long-int register} == 0 goto _andif_1($8)
                      00176 ;;[ICODE] ../../libsdcc_mc30/_mullong.c:42:     iTemp8 [k14 lr17:18 so:0]{ ia0 a2p0 re0 rm0 nos0 ru0 dp0}{long-int fixed}[r0x100D r0x100E r0x100F r0x1010 ] = iTemp1 [k4 lr4:43 so:0]{ ia0 a2p0 re1 rm0 nos0 ru0 dp0}{long-int fixed}{ sir@ __mullong_b_1_1}[r0x1004 r0x1005 r0x1006 r0x1007 ] << 0x8 {const-unsigned-int literal}
002F   1600           00177         MOVAR   r0x1005
0030   1580           00178         MOVRA   r0x1010
0031   1600           00179         MOVAR   r0x1006
0032   1580           00180         MOVRA   r0x100F
                      00181 ;;100   MOVAR   r0x1007
0033   1D80           00182         CLRR    r0x100D
                      00183 ;;[ICODE] ../../libsdcc_mc30/_mullong.c:42:     iTemp2 [k6 lr5:44 so:0]{ ia0 a2p0 re1 rm0 nos0 ru0 dp0}{long-int fixed}{ sir@ __mullong_result_1_2}[r0x1008 r0x1009 r0x100A r0x100B ] = iTemp2 [k6 lr5:44 so:0]{ ia0 a2p0 re1 rm0 nos0 ru0 dp0}{long-int fixed}{ sir@ __mullong_result_1_2}[r0x1008 r0x1009 r0x100A r0x100B ] + iTemp8 [k14 lr17:18 so:0]{ ia0 a2p0 re0 rm0 nos0 ru0 dp0}{long-int fixed}[r0x100D r0x100E r0x100F r0x1010 ]
0034   0B00           00184         MOVAI   0x00
0035   1F80           00185         ADDRA   r0x1008
                      00186 ;;99    MOVAR   r0x100E
0036   1600           00187         MOVAR   r0x1007
0037   1580           00188         MOVRA   r0x100E
0038   3403           00189         JBCLR   STATUS,0
0039   1800           00190         JZAR    r0x100E
003A   1F80           00191         ADDRA   r0x1009
003B   1600           00192         MOVAR   r0x100F
003C   3403           00193         JBCLR   STATUS,0
003D   1800           00194         JZAR    r0x100F
003E   1F80           00195         ADDRA   r0x100A
003F   1600           00196         MOVAR   r0x1010
0040   3403           00197         JBCLR   STATUS,0
0041   1800           00198         JZAR    r0x1010
0042   1F80           00199         ADDRA   r0x100B
                      00200 ;;[ICODE] ../../libsdcc_mc30/_mullong.c:43:  _andif_1($8) :
                      00201 ;;[ICODE] ../../libsdcc_mc30/_mullong.c:43:     iTemp10 [k16 lr21:22 so:0]{ ia0 a2p0 re0 rm0 nos0 ru0 dp0}{unsigned-long-int register}[r0x100D r0x100E r0x100F r0x1010 ] = (unsigned-long-int register)iTemp0 [k2 lr3:43 so:0]{ ia0 a2p0 re1 rm0 nos0 ru0 dp0}{long-int fixed}{ sir@ __mullong_a_1_1}[r0x1000 r0x1001 r0x1002 r0x1003 ]
0043                  00202 _00112_DS_
                      00203 ;       .line   43; "../../libsdcc_mc30/_mullong.c"     if (sizeof (a) > 2 && (a & 0x00010000ul)) result += (b << 16u);
0043   1600           00204         MOVAR   r0x1003
0044   1580           00205         MOVRA   r0x100D
0045   1600           00206         MOVAR   r0x1002
0046   1580           00207         MOVRA   r0x100E
0047   1600           00208         MOVAR   r0x1001
0048   1580           00209         MOVRA   r0x100F
0049   1600           00210         MOVAR   r0x1000
004A   1580           00211         MOVRA   r0x1010
                      00212 ;;[ICODE] ../../libsdcc_mc30/_mullong.c:43:     iTemp11 [k17 lr22:23 so:0]{ ia0 a2p0 re0 rm0 nos0 ru0 dp0}{unsigned-long-int register} = iTemp10 [k16 lr21:22 so:0]{ ia0 a2p0 re0 rm0 nos0 ru0 dp0}{unsigned-long-int register}[r0x100D r0x100E r0x100F r0x1010 ] & 0x10000 {const-unsigned-long-int literal}
004B   3000           00213         JBSET   r0x100F,0
004C   2800           00214         GOTO    _00115_DS_
                      00215 ;;[ICODE] ../../libsdcc_mc30/_mullong.c:43:     if iTemp11 [k17 lr22:23 so:0]{ ia0 a2p0 re0 rm0 nos0 ru0 dp0}{unsigned-long-int register} == 0 goto _andif_2($11)
                      00216 ;;[ICODE] ../../libsdcc_mc30/_mullong.c:43:     iTemp12 [k18 lr24:25 so:0]{ ia0 a2p0 re0 rm0 nos0 ru0 dp0}{long-int fixed}[r0x100D r0x100E r0x100F r0x1010 ] = iTemp1 [k4 lr4:43 so:0]{ ia0 a2p0 re1 rm0 nos0 ru0 dp0}{long-int fixed}{ sir@ __mullong_b_1_1}[r0x1004 r0x1005 r0x1006 r0x1007 ] << 0x10 {const-unsigned-int literal}
004D   1600           00217         MOVAR   r0x1006
004E   1580           00218         MOVRA   r0x1010
004F   1600           00219         MOVAR   r0x1007
0050   1580           00220         MOVRA   r0x100F
0051   1D80           00221         CLRR    r0x100E
0052   1D80           00222         CLRR    r0x100D
                      00223 ;;[ICODE] ../../libsdcc_mc30/_mullong.c:43:     iTemp2 [k6 lr5:44 so:0]{ ia0 a2p0 re1 rm0 nos0 ru0 dp0}{long-int fixed}{ sir@ __mullong_result_1_2}[r0x1008 r0x1009 r0x100A r0x100B ] = iTemp2 [k6 lr5:44 so:0]{ ia0 a2p0 re1 rm0 nos0 ru0 dp0}{long-int fixed}{ sir@ __mullong_result_1_2}[r0x1008 r0x1009 r0x100A r0x100B ] + iTemp12 [k18 lr24:25 so:0]{ ia0 a2p0 re0 rm0 nos0 ru0 dp0}{long-int fixed}[r0x100D r0x100E r0x100F r0x1010 ]
0053   0B00           00224         MOVAI   0x00
0054   1F80           00225         ADDRA   r0x1008
0055   0B00           00226         MOVAI   0x00
0056   3403           00227         JBCLR   STATUS,0
0057   1800           00228         JZAR    r0x100E
0058   1F80           00229         ADDRA   r0x1009
0059   1600           00230         MOVAR   r0x100F
005A   3403           00231         JBCLR   STATUS,0
005B   1800           00232         JZAR    r0x100F
005C   1F80           00233         ADDRA   r0x100A
005D   1600           00234         MOVAR   r0x1010
005E   3403           00235         JBCLR   STATUS,0
005F   1800           00236         JZAR    r0x1010
0060   1F80           00237         ADDRA   r0x100B
                      00238 ;;[ICODE] ../../libsdcc_mc30/_mullong.c:44:  _andif_2($11) :
                      00239 ;;[ICODE] ../../libsdcc_mc30/_mullong.c:44:     iTemp14 [k20 lr28:29 so:0]{ ia0 a2p0 re0 rm0 nos0 ru0 dp0}{unsigned-long-int register}[r0x100D r0x100E r0x100F r0x1010 ] = (unsigned-long-int register)iTemp0 [k2 lr3:43 so:0]{ ia0 a2p0 re1 rm0 nos0 ru0 dp0}{long-int fixed}{ sir@ __mullong_a_1_1}[r0x1000 r0x1001 r0x1002 r0x1003 ]
0061                  00240 _00115_DS_
                      00241 ;       .line   44; "../../libsdcc_mc30/_mullong.c"     if (sizeof (a) > 3 && (a & 0x01000000ul)) result += (b << 24u);
0061   1600           00242         MOVAR   r0x1003
0062   1580           00243         MOVRA   r0x100D
0063   1600           00244         MOVAR   r0x1002
0064   1580           00245         MOVRA   r0x100E
0065   1600           00246         MOVAR   r0x1001
0066   1580           00247         MOVRA   r0x100F
0067   1600           00248         MOVAR   r0x1000
0068   1580           00249         MOVRA   r0x1010
                      00250 ;;[ICODE] ../../libsdcc_mc30/_mullong.c:44:     iTemp15 [k21 lr29:30 so:0]{ ia0 a2p0 re0 rm0 nos0 ru0 dp0}{unsigned-long-int register} = iTemp14 [k20 lr28:29 so:0]{ ia0 a2p0 re0 rm0 nos0 ru0 dp0}{unsigned-long-int register}[r0x100D r0x100E r0x100F r0x1010 ] & 0x1000000 {const-unsigned-long-int literal}
0069   3000           00251         JBSET   r0x1010,0
006A   2800           00252         GOTO    _00114_DS_
                      00253 ;;[ICODE] ../../libsdcc_mc30/_mullong.c:44:     if iTemp15 [k21 lr29:30 so:0]{ ia0 a2p0 re0 rm0 nos0 ru0 dp0}{unsigned-long-int register} == 0 goto _iffalse_3($10)
                      00254 ;;[ICODE] ../../libsdcc_mc30/_mullong.c:44:     iTemp16 [k22 lr31:32 so:0]{ ia0 a2p0 re0 rm0 nos0 ru0 dp0}{long-int fixed}[r0x100D r0x100E r0x100F r0x1010 ] = iTemp1 [k4 lr4:43 so:0]{ ia0 a2p0 re1 rm0 nos0 ru0 dp0}{long-int fixed}{ sir@ __mullong_b_1_1}[r0x1004 r0x1005 r0x1006 r0x1007 ] << 0x18 {const-unsigned-int literal}
006B   1600           00255         MOVAR   r0x1007
006C   1580           00256         MOVRA   r0x1010
006D   1D80           00257         CLRR    r0x100F
006E   1D80           00258         CLRR    r0x100E
006F   1D80           00259         CLRR    r0x100D
                      00260 ;;[ICODE] ../../libsdcc_mc30/_mullong.c:44:     iTemp2 [k6 lr5:44 so:0]{ ia0 a2p0 re1 rm0 nos0 ru0 dp0}{long-int fixed}{ sir@ __mullong_result_1_2}[r0x1008 r0x1009 r0x100A r0x100B ] = iTemp2 [k6 lr5:44 so:0]{ ia0 a2p0 re1 rm0 nos0 ru0 dp0}{long-int fixed}{ sir@ __mullong_result_1_2}[r0x1008 r0x1009 r0x100A r0x100B ] + iTemp16 [k22 lr31:32 so:0]{ ia0 a2p0 re0 rm0 nos0 ru0 dp0}{long-int fixed}[r0x100D r0x100E r0x100F r0x1010 ]
0070   0B00           00261         MOVAI   0x00
0071   1F80           00262         ADDRA   r0x1008
0072   0B00           00263         MOVAI   0x00
0073   3403           00264         JBCLR   STATUS,0
0074   1800           00265         JZAR    r0x100E
0075   1F80           00266         ADDRA   r0x1009
0076   1600           00267         MOVAR   r0x100F
0077   3403           00268         JBCLR   STATUS,0
0078   1800           00269         JZAR    r0x100F
0079   1F80           00270         ADDRA   r0x100A
007A   1600           00271         MOVAR   r0x1010
007B   3403           00272         JBCLR   STATUS,0
007C   1800           00273         JZAR    r0x1010
007D   1F80           00274         ADDRA   r0x100B
                      00275 ;;[ICODE] ../../libsdcc_mc30/_mullong.c:44:  _iffalse_3($10) :
                      00276 ;;[ICODE] ../../libsdcc_mc30/_mullong.c:45:     iTemp18 [k24 lr35:36 so:0]{ ia0 a2p0 re0 rm0 nos0 ru0 dp0}{unsigned-long-int fixed}[r0x100D r0x100E r0x100F r0x1010 ] = (unsigned-long-int fixed)iTemp0 [k2 lr3:43 so:0]{ ia0 a2p0 re1 rm0 nos0 ru0 dp0}{long-int fixed}{ sir@ __mullong_a_1_1}[r0x1000 r0x1001 r0x1002 r0x1003 ]
007E                  00277 _00114_DS_
                      00278 ;       .line   45; "../../libsdcc_mc30/_mullong.c"     a = ((unsigned long)a) >> 1u;
007E   1600           00279         MOVAR   r0x1003
007F   1580           00280         MOVRA   r0x100D
0080   1600           00281         MOVAR   r0x1002
0081   1580           00282         MOVRA   r0x100E
0082   1600           00283         MOVAR   r0x1001
0083   1580           00284         MOVRA   r0x100F
0084   1600           00285         MOVAR   r0x1000
0085   1580           00286         MOVRA   r0x1010
                      00287 ;;[ICODE] ../../libsdcc_mc30/_mullong.c:45:     iTemp0 [k2 lr3:43 so:0]{ ia0 a2p0 re1 rm0 nos0 ru0 dp0}{long-int fixed}{ sir@ __mullong_a_1_1}[r0x1000 r0x1001 r0x1002 r0x1003 ] = iTemp18 [k24 lr35:36 so:0]{ ia0 a2p0 re0 rm0 nos0 ru0 dp0}{unsigned-long-int fixed}[r0x100D r0x100E r0x100F r0x1010 ] >> 0x1 {const-unsigned-int literal}
                      00288 ;;shiftRight_Left2ResultLit:5216: shCount=1, size=4, sign=0, same=0, offr=0
0086   3C03           00289         BCLR    STATUS,0
0087   1300           00290         RRAR    r0x1010
0088   1580           00291         MOVRA   r0x1000
0089   1300           00292         RRAR    r0x100F
008A   1580           00293         MOVRA   r0x1001
008B   1300           00294         RRAR    r0x100E
008C   1580           00295         MOVRA   r0x1002
008D   1300           00296         RRAR    r0x100D
008E   1580           00297         MOVRA   r0x1003
                      00298 ;;[ICODE] ../../libsdcc_mc30/_mullong.c:46:     iTemp1 [k4 lr4:43 so:0]{ ia0 a2p0 re1 rm0 nos0 ru0 dp0}{long-int fixed}{ sir@ __mullong_b_1_1}[r0x1004 r0x1005 r0x1006 r0x1007 ] = iTemp1 [k4 lr4:43 so:0]{ ia0 a2p0 re1 rm0 nos0 ru0 dp0}{long-int fixed}{ sir@ __mullong_b_1_1}[r0x1004 r0x1005 r0x1006 r0x1007 ] << 0x1 {const-unsigned-int literal}
                      00299 ;       .line   46; "../../libsdcc_mc30/_mullong.c"     b <<= 1u;
008F   3C03           00300         BCLR    STATUS,0
0090   1480           00301         RLR     r0x1007
0091   1480           00302         RLR     r0x1006
0092   1480           00303         RLR     r0x1005
0093   1480           00304         RLR     r0x1004
                      00305 ;;[ICODE] ../../libsdcc_mc30/_mullong.c:46:     iTemp21 [k27 lr40:41 so:0]{ ia0 a2p0 re0 rm0 nos0 ru0 dp0}{char register}[r0x100D ] = (char register)iTemp3 [k8 lr6:43 so:0]{ ia0 a2p0 re1 rm0 nos0 ru0 dp0}{unsigned-char fixed}{ sir@ __mullong_i_1_2}[r0x100C ]
0094   1600           00306         MOVAR   r0x100C
0095   1580           00307         MOVRA   r0x100D
                      00308 ;;[ICODE] ../../libsdcc_mc30/_mullong.c:46:     iTemp3 [k8 lr6:43 so:0]{ ia0 a2p0 re1 rm0 nos0 ru0 dp0}{unsigned-char fixed}{ sir@ __mullong_i_1_2}[r0x100C ] = iTemp21 [k27 lr40:41 so:0]{ ia0 a2p0 re0 rm0 nos0 ru0 dp0}{char register}[r0x100D ] - 0x1 {const-char literal}
0096   1B00           00309         DECAR   r0x100D
0097   1580           00310         MOVRA   r0x100C
                      00311 ;;[ICODE] ../../libsdcc_mc30/_mullong.c:39:     if iTemp3 [k8 lr6:43 so:0]{ ia0 a2p0 re1 rm0 nos0 ru0 dp0}{unsigned-char fixed}{ sir@ __mullong_i_1_2}[r0x100C ] != 0 goto _forcontinue_0($14)
                      00312 ;       .line   39; "../../libsdcc_mc30/_mullong.c"     for (i = 0; i < 8u; i++) {
0098   0B00           00313         MOVAI   0x00
0099   1700           00314         ORAR    r0x100C
009A   3103           00315         JBSET   STATUS,2
009B   2800           00316         GOTO    _00118_DS_
                      00317 ;;[ICODE] ../../libsdcc_mc30/_mullong.c:49:     ret iTemp2 [k6 lr5:44 so:0]{ ia0 a2p0 re1 rm0 nos0 ru0 dp0}{long-int fixed}{ sir@ __mullong_result_1_2}[r0x1008 r0x1009 r0x100A r0x100B ]
                      00318 ;       .line   49; "../../libsdcc_mc30/_mullong.c"     return result;
009C   1600           00319         MOVAR   r0x1008
009D   1580           00320         MOVRA   STK02
009E   1600           00321         MOVAR   r0x1009
009F   1580           00322         MOVRA   STK01
00A0   1600           00323         MOVAR   r0x100A
00A1   1580           00324         MOVRA   STK00
00A2   1600           00325         MOVAR   r0x100B
                      00326 ;;[ICODE] ../../libsdcc_mc30/_mullong.c:49:  _return($15) :
                      00327 ;;[ICODE] ../../libsdcc_mc30/_mullong.c:49:     eproc __mullong [k1 lr0:0 so:0]{ ia0 a2p0 re0 rm0 nos0 ru0 dp0}{long-int function ( long-int fixed, long-int fixed) fixed}
00A3   000C           00328         RETURN  
                      00329 ; exit point of __mullong
                      00330 
                      00331 
                      00332 ;       code size estimation:
                      00333 ;         164+    0 =   164 instructions (  328 byte)
                      00334 
                      00335         end
gpasm-2.0.0_beta2 (Nov  6 2017)_mullong.asm       2018-1-12  13:53:03          PAGE  2


SYMBOL TABLE
  LABEL                             VALUE

BUZE                              00000005
C                                 00000000
DBLCK                             00000004
DC                                00000001
DDR0                              00000045
DDR00                             00000000
DDR01                             00000001
DDR02                             00000002
DDR03                             00000003
DDR1                              00000046
DDR10                             00000000
DDR11                             00000001
DDR12                             00000002
DDR13                             00000003
DDR14                             00000004
DDR15                             00000005
DDR16                             00000006
DDR17                             00000007
EIS                               00000006
FSR                               00000004
FSR0                              00000000
FSR1                              00000001
FSR2                              00000002
FSR3                              00000003
FSR4                              00000004
FSR5                              00000005
GIE                               00000007
INDF                              00000000
INDF0                             00000000
INDF1                             00000001
INDF2                             00000002
INDF3                             00000003
INDF4                             00000004
INDF5                             00000005
INDF6                             00000006
INDF7                             00000007
INTECON                           0000000E
INTFLAG                           0000000F
INTIE                             00000002
INTIF                             00000002
INTOM                             00000006
KBIE                              00000001
KBIF                              00000001
KBIM                              00000009
KBIM0                             00000000
KBIM1                             00000001
KBIM2                             00000002
KBIM3                             00000003
KBIM4                             00000004
KBIM5                             00000005
KBIM6                             00000006
KBIM7                             00000007
LVDEN                             00000000
LVDF                              00000005
LVDSEL0                           00000001
LVDSEL1                           00000002
LVDSEL2                           00000003
LVDSEL3                           00000004
MCR                               00000008
ODCON                             0000000C
P0                                00000005
P00D                              00000000
P00PD                             00000000
P01D                              00000001
P01PD                             00000001
P02D                              00000002
P02PD                             00000002
P03D                              00000003
P03PD                             00000003
P1                                00000006
P10D                              00000000
P10OD                             00000000
P10PD                             00000004
P10PU                             00000000
P11D                              00000001
P11OD                             00000001
P11PD                             00000005
P11PU                             00000001
P12D                              00000002
P12OD                             00000002
P12PD                             00000006
P12PU                             00000002
P13D                              00000003
P13PU                             00000003
P14D                              00000004
P14OD                             00000004
P14PU                             00000004
P15D                              00000005
P15OD                             00000005
P15PU                             00000005
P16D                              00000006
P16OD                             00000006
P16PU                             00000006
P17D                              00000007
P17OD                             00000007
P17PU                             00000007
PC0                               00000000
PC1                               00000001
PC2                               00000002
PC3                               00000003
PC4                               00000004
PC5                               00000005
PC6                               00000006
PC7                               00000007
PCH0                              00000000
PCH1                              00000001
PCL                               00000002
PCLATH                            0000000A
PD                                00000003
PDCON                             0000000B
PMW0OE                            00000007
PMW1E                             00000001
PUCON                             0000000D
PWM0E                             00000006
PWM1OE                            00000006
PWM2E                             00000000
PWM2OE                            00000005
PWMCR                             00000048
PWMINV                            00000002
PWMMD                             00000003
RST                               00000007
STATUS                            00000003
STK00                             00000000
STK01                             00000000
STK02                             00000000
STK03                             00000000
STK04                             00000000
STK05                             00000000
STK06                             00000000
T0C0                              00000000
T0C1                              00000001
T0C2                              00000002
T0C3                              00000003
T0C4                              00000004
T0C5                              00000005
T0C6                              00000006
T0C7                              00000007
T0CNT                             00000001
T0CR                              00000041
T0IE                              00000000
T0IF                              00000000
T0PR0                             00000000
T0PR1                             00000001
T0PR2                             00000002
T0PTA                             00000003
T0PTS                             00000005
T0SE                              00000004
T1C0                              00000000
T1C1                              00000001
T1C2                              00000002
T1C3                              00000003
T1C4                              00000004
T1C5                              00000005
T1C6                              00000006
T1C7                              00000007
T1CNT                             0000004D
T1CR                              0000004C
T1DAT0                            0000004F
T1DAT00                           00000000
T1DAT01                           00000001
T1DAT02                           00000002
T1DAT03                           00000003
T1DAT04                           00000004
T1DAT05                           00000005
T1DAT06                           00000006
T1DAT07                           00000007
T1DAT1                            00000049
T1DAT10                           00000000
T1DAT11                           00000001
T1DAT12                           00000002
T1DAT13                           00000003
T1DAT14                           00000004
T1DAT15                           00000005
T1DAT16                           00000006
T1DAT17                           00000007
T1DAT2                            0000004A
T1DAT20                           00000000
T1DAT21                           00000001
T1DAT22                           00000002
T1DAT23                           00000003
T1DAT24                           00000004
T1DAT25                           00000005
T1DAT26                           00000006
T1DAT27                           00000007
T1IE                              00000001
T1IF                              00000000
T1LOAD                            0000004E
T1LOAD0                           00000000
T1LOAD1                           00000001
T1LOAD2                           00000002
T1LOAD3                           00000003
T1LOAD4                           00000004
T1LOAD5                           00000005
T1LOAD6                           00000006
T1LOAD7                           00000007
T1PR0                             00000000
T1PR1                             00000001
T1PR2                             00000002
T1PTS0                            00000003
T1PTS1                            00000004
TBS                               00000007
TC1EN                             00000007
TM0CR                             0000004B
TO                                00000004
WDTEN                             00000007
Z                                 00000002
_00109_DS_                        00000025
_00112_DS_                        00000043
_00114_DS_                        0000007E
_00115_DS_                        00000061
_00118_DS_                        00000015
_CONFIG0                          00002000
_CONFIG1                          00002001
__30P011                          00000001
__mullong                         00000000
r0x1000                           00000003
r0x1001                           00000002
r0x1002                           00000001
r0x1003                           00000000
r0x1004                           00000007
r0x1005                           00000006
r0x1006                           00000005
r0x1007                           00000004
r0x1008                           00000008
r0x1009                           00000009
r0x100A                           0000000A
r0x100B                           0000000B
r0x100C                           0000000C
r0x100D                           0000000D
r0x100E                           0000000E
r0x100F                           0000000F
r0x1010                           00000010

Errors   :     0
Warnings :     0 reported,     0 suppressed
Messages :     0 reported,     0 suppressed

