gpasm-2.0.0_beta2 (Nov  6 2017)ulong2fs.asm       2018-1-12  13:53:06          PAGE  1


LOC  OBJECT CODE     LINE SOURCE TEXT
  VALUE

                      00001 ;--------------------------------------------------------
                      00002 ; File Created by SN-SDCC : SinoMCU ANSI-C Compiler
                      00003 ; Version 1.1.0 (Dec 19 2017) (MINGW32)
                      00004 ; This file was generated Fri Jan 12 13:53:06 2018
                      00005 ;--------------------------------------------------------
                      00006 ; MC30 port for the RISC core
                      00007 ;--------------------------------------------------------
                      00008 ;       .file   "../../libsdcc_mc30/ulong2fs.c"
                      00009         list    p=0311
                      00010         radix dec
                      00011         include "0311.inc"
                      00001                 LIST
                      00002 ;mc30p6080.inc    Standard Header File, Version 1.00 by Sinomcu
                      00326                 LIST
                      00012 ;--------------------------------------------------------
                      00013 ; external declarations
                      00014 ;--------------------------------------------------------
                      00015         extern  ___uchar2fs
                      00016         extern  ___schar2fs
                      00017         extern  ___uint2fs
                      00018         extern  ___sint2fs
                      00019         extern  ___slong2fs
                      00020         extern  ___fs2uchar
                      00021         extern  ___fs2schar
                      00022         extern  ___fs2uint
                      00023         extern  ___fs2sint
                      00024         extern  ___fs2ulong
                      00025         extern  ___fs2slong
                      00026         extern  ___fsadd
                      00027         extern  ___fssub
                      00028         extern  ___fsmul
                      00029         extern  ___fsdiv
                      00030         extern  ___fslt
                      00031         extern  ___fseq
                      00032         extern  ___fsneq
                      00033         extern  ___fsgt
                      00034 
                      00035         extern STK06
                      00036         extern STK05
                      00037         extern STK04
                      00038         extern STK03
                      00039         extern STK02
                      00040         extern STK01
                      00041         extern STK00
                      00042 ;--------------------------------------------------------
                      00043 ; global declarations
                      00044 ;--------------------------------------------------------
                      00045         global  ___ulong2fs
                      00046 
                      00047 ;--------------------------------------------------------
                      00048 ; global definitions
                      00049 ;--------------------------------------------------------
                      00050 ;--------------------------------------------------------
                      00051 ; absolute symbol definitions
                      00052 ;--------------------------------------------------------
                      00053 ;--------------------------------------------------------
                      00054 ; compiler-defined variables
                      00055 ;--------------------------------------------------------
                      00056 UDL_ulong2fs_0  udata
0000                  00057 r0x1007 res     1
0000                  00058 r0x1006 res     1
0001                  00059 r0x1005 res     1
0001                  00060 r0x1004 res     1
0002                  00061 r0x1008 res     1
0002                  00062 r0x1009 res     1
0003                  00063 r0x100A res     1
0003                  00064 r0x100B res     1
0004                  00065 r0x100C res     1
0004                  00066 r0x100D res     1
0005                  00067 r0x100F res     1
0005                  00068 r0x100E res     1
0006                  00069 ___ulong2fs_fl_1_22     res     4
                      00070 ;--------------------------------------------------------
                      00071 ; initialized data
                      00072 ;--------------------------------------------------------
                      00073 
                      00074 ;@Allocation info for local variables in function '__ulong2fs'
                      00075 ;@__ulong2fs __uchar2fs                Allocated to registers ;size:2
                      00076 ;@__ulong2fs __schar2fs                Allocated to registers ;size:2
                      00077 ;@__ulong2fs __uint2fs                 Allocated to registers ;size:2
                      00078 ;@__ulong2fs __sint2fs                 Allocated to registers ;size:2
                      00079 ;@__ulong2fs __slong2fs                Allocated to registers ;size:2
                      00080 ;@__ulong2fs __fs2uchar                Allocated to registers ;size:2
                      00081 ;@__ulong2fs __fs2schar                Allocated to registers ;size:2
                      00082 ;@__ulong2fs __fs2uint                 Allocated to registers ;size:2
                      00083 ;@__ulong2fs __fs2sint                 Allocated to registers ;size:2
                      00084 ;@__ulong2fs __fs2ulong                Allocated to registers ;size:2
                      00085 ;@__ulong2fs __fs2slong                Allocated to registers ;size:2
                      00086 ;@__ulong2fs __fsadd                   Allocated to registers ;size:2
                      00087 ;@__ulong2fs __fssub                   Allocated to registers ;size:2
                      00088 ;@__ulong2fs __fsmul                   Allocated to registers ;size:2
                      00089 ;@__ulong2fs __fsdiv                   Allocated to registers ;size:2
                      00090 ;@__ulong2fs __fslt                    Allocated to registers ;size:2
                      00091 ;@__ulong2fs __fseq                    Allocated to registers ;size:2
                      00092 ;@__ulong2fs __fsneq                   Allocated to registers ;size:2
                      00093 ;@__ulong2fs __fsgt                    Allocated to registers ;size:2
                      00094 ;@__ulong2fs a                         Allocated to registers r0x1007 r0x1006 r0x1005 r0x1004 ;size:4
                      00095 ;@__ulong2fs exp                       Allocated to registers r0x100A r0x100B ;size:2
                      00096 ;@__ulong2fs fl                        Allocated to registers ;size:4
                      00097 ;@end Allocation info for local variables in function '__ulong2fs';
                      00098 
                      00099 ;--------------------------------------------------------
                      00100 ; overlayable items in internal ram 
                      00101 ;--------------------------------------------------------
                      00102 ;       udata_ovr
                      00103 ;--------------------------------------------------------
                      00104 ; code
                      00105 ;--------------------------------------------------------
                      00106 code_ulong2fs   code
                      00107 ;***
                      00108 ;  pBlock Stats: dbName = C
                      00109 ;***
                      00110 ;entry:  ___ulong2fs    ;Function start
                      00111 ; 2 exit points
                      00112 ;has an exit
                      00113 ;15 compiler assigned registers:
                      00114 ;   r0x1004
                      00115 ;   STK00
                      00116 ;   r0x1005
                      00117 ;   STK01
                      00118 ;   r0x1006
                      00119 ;   STK02
                      00120 ;   r0x1007
                      00121 ;   r0x1008
                      00122 ;   r0x1009
                      00123 ;   r0x100A
                      00124 ;   r0x100B
                      00125 ;   r0x100C
                      00126 ;   r0x100D
                      00127 ;   r0x100E
                      00128 ;   r0x100F
                      00129 ;; Starting pCode block
                      00130 ;;[ICODE] ../../libsdcc_mc30/ulong2fs.c:54:  _entry($14) :
                      00131 ;;[ICODE] ../../libsdcc_mc30/ulong2fs.c:54:     proc ___ulong2fs [k1 lr0:0 so:0]{ ia0 a2p0 re0 rm0 nos0 ru0 dp0}{float function ( unsigned-long-int fixed) fixed}
0000                  00132 ___ulong2fs     ;Function start
                      00133 ; 2 exit points
                      00134 ;;[ICODE] ../../libsdcc_mc30/ulong2fs.c:54: iTemp0 [k2 lr3:42 so:0]{ ia0 a2p0 re1 rm0 nos0 ru0 dp0}{unsigned-long-int fixed}{ sir@ ___ulong2fs_a_1_21}[r0x1000 r0x1001 r0x1002 r0x1003 ] = recv ___ulong2fs [k1 lr0:0 so:0]{ ia0 a2p0 re0 rm0 nos0 ru0 dp0}{float function ( unsigned-long-int fixed) fixed}
                      00135 ;       .line   54; "../../libsdcc_mc30/ulong2fs.c"     float __ulong2fs (unsigned long a ) _FS_REENTRANT
0000   1580           00136         MOVRA   r0x1004
0001   1600           00137         MOVAR   STK00
0002   1580           00138         MOVRA   r0x1005
0003   1600           00139         MOVAR   STK01
0004   1580           00140         MOVRA   r0x1006
0005   1600           00141         MOVAR   STK02
0006   1580           00142         MOVRA   r0x1007
                      00143 ;;[ICODE] ../../libsdcc_mc30/ulong2fs.c:59:     if iTemp0 [k2 lr3:42 so:0]{ ia0 a2p0 re1 rm0 nos0 ru0 dp0}{unsigned-long-int fixed}{ sir@ ___ulong2fs_a_1_21}[r0x1000 r0x1001 r0x1002 r0x1003 ] != 0 goto preHeaderLbl0($17)
                      00144 ;       .line   59; "../../libsdcc_mc30/ulong2fs.c"     if (!a)
0007   1600           00145         MOVAR   r0x1007
0008   1700           00146         ORAR    r0x1006
0009   1700           00147         ORAR    r0x1005
000A   1700           00148         ORAR    r0x1004
000B   3103           00149         JBSET   STATUS,2
000C   2800           00150         GOTO    _00121_DS_
                      00151 ;;[ICODE] ../../libsdcc_mc30/ulong2fs.c:61:     ret 0 {const-float literal}
                      00152 ;       .line   61; "../../libsdcc_mc30/ulong2fs.c"     return 0.0;
000D   0B00           00153         MOVAI   0x00
000E   1580           00154         MOVRA   STK02
000F   0B00           00155         MOVAI   0x00
0010   1580           00156         MOVRA   STK01
0011   0B00           00157         MOVAI   0x00
0012   1580           00158         MOVRA   STK00
0013   0B00           00159         MOVAI   0x00
0014   2800           00160         GOTO    _00117_DS_
                      00161 ;;[ICODE] ../../libsdcc_mc30/ulong2fs.c:64:  preHeaderLbl0($17) :
                      00162 ;;[ICODE] ../../libsdcc_mc30/ulong2fs.c:64:     iTemp5 [k9 lr7:20 so:0]{ ia0 a2p0 re0 rm0 nos0 ru0 dp0}{int fixed}{ sir@ ___ulong2fs_exp_1_22}[r0x1004 r0x1005 ] := 0x96 {int literal}
0015                  00163 _00121_DS_
                      00164 ;       .line   64; "../../libsdcc_mc30/ulong2fs.c"     while (a & NORM) 
0015   0B96           00165         MOVAI   0x96
0016   1580           00166         MOVRA   r0x1008
0017   1D80           00167         CLRR    r0x1009
                      00168 ;;[ICODE] ../../libsdcc_mc30/ulong2fs.c:64:  _whilecontinue_0($3) :
                      00169 ;;[ICODE] ../../libsdcc_mc30/ulong2fs.c:64:     iTemp2 [k6 lr10:11 so:0]{ ia0 a2p0 re0 rm0 nos0 ru0 dp0}{unsigned-long-int register} = iTemp0 [k2 lr3:42 so:0]{ ia0 a2p0 re1 rm0 nos0 ru0 dp0}{unsigned-long-int fixed}{ sir@ ___ulong2fs_a_1_21}[r0x1000 r0x1001 r0x1002 r0x1003 ] & 0xff000000 {const-unsigned-long-int literal}
0018                  00170 _00107_DS_
0018   1600           00171         MOVAR   r0x1004
0019   0DFF           00172         ANDAI   0xff
001A   3503           00173         JBCLR   STATUS,2
001B   2800           00174         GOTO    _00124_DS_
                      00175 ;;[ICODE] ../../libsdcc_mc30/ulong2fs.c:64:     if iTemp2 [k6 lr10:11 so:0]{ ia0 a2p0 re0 rm0 nos0 ru0 dp0}{unsigned-long-int register} == 0 goto loopExitLbl2($20)
                      00176 ;;[ICODE] ../../libsdcc_mc30/ulong2fs.c:67:     iTemp0 [k2 lr3:42 so:0]{ ia0 a2p0 re1 rm0 nos0 ru0 dp0}{unsigned-long-int fixed}{ sir@ ___ulong2fs_a_1_21}[r0x1000 r0x1001 r0x1002 r0x1003 ] = iTemp0 [k2 lr3:42 so:0]{ ia0 a2p0 re1 rm0 nos0 ru0 dp0}{unsigned-long-int fixed}{ sir@ ___ulong2fs_a_1_21}[r0x1000 r0x1001 r0x1002 r0x1003 ] >> 0x1 {const-unsigned-char literal}
                      00177 ;;shiftRight_Left2ResultLit:5216: shCount=1, size=4, sign=0, same=1, offr=0
                      00178 ;       .line   67; "../../libsdcc_mc30/ulong2fs.c"     a >>= 1;
001C   3C03           00179         BCLR    STATUS,0
001D   1380           00180         RRR     r0x1004
001E   1380           00181         RRR     r0x1005
001F   1380           00182         RRR     r0x1006
0020   1380           00183         RRR     r0x1007
                      00184 ;;[ICODE] ../../libsdcc_mc30/ulong2fs.c:68:     iTemp5 [k9 lr7:20 so:0]{ ia0 a2p0 re0 rm0 nos0 ru0 dp0}{int fixed}{ sir@ ___ulong2fs_exp_1_22}[r0x1004 r0x1005 ] = iTemp5 [k9 lr7:20 so:0]{ ia0 a2p0 re0 rm0 nos0 ru0 dp0}{int fixed}{ sir@ ___ulong2fs_exp_1_22}[r0x1004 r0x1005 ] + 0x1 {const-unsigned-char literal}
                      00185 ;       .line   68; "../../libsdcc_mc30/ulong2fs.c"     exp++;
0021   1980           00186         INCR    r0x1008
0022   3503           00187         JBCLR   STATUS,2
0023   1980           00188         INCR    r0x1009
                      00189 ;;[ICODE] ../../libsdcc_mc30/ulong2fs.c:68:      goto _whilecontinue_0($3)
0024   2800           00190         GOTO    _00107_DS_
                      00191 ;;[ICODE] ../../libsdcc_mc30/ulong2fs.c:68:  loopExitLbl2($20) :
                      00192 ;;[ICODE] ../../libsdcc_mc30/ulong2fs.c:68:     iTemp1 [k4 lr17:40 so:0]{ ia0 a2p0 re1 rm0 nos0 ru0 dp0}{int fixed}[r0x1006 r0x1007 ] := iTemp5 [k9 lr7:20 so:0]{ ia0 a2p0 re0 rm0 nos0 ru0 dp0}{int fixed}{ sir@ ___ulong2fs_exp_1_22}[r0x1004 r0x1005 ]
0025                  00193 _00124_DS_
0025   1600           00194         MOVAR   r0x1008
0026   1580           00195         MOVRA   r0x100A
0027   1600           00196         MOVAR   r0x1009
0028   1580           00197         MOVRA   r0x100B
                      00198 ;;[ICODE] ../../libsdcc_mc30/ulong2fs.c:72:     iTemp6 [k10 lr18:19 so:0]{ ia0 a2p0 re0 rm0 nos0 ru0 dp0}{char fixed} = iTemp0 [k2 lr3:42 so:0]{ ia0 a2p0 re1 rm0 nos0 ru0 dp0}{unsigned-long-int fixed}{ sir@ ___ulong2fs_a_1_21}[r0x1000 r0x1001 r0x1002 r0x1003 ] & 0xff800000 {const-long-int literal}
                      00199 ;       .line   72; "../../libsdcc_mc30/ulong2fs.c"     if(a < HIDDEN) {
0029   1600           00200         MOVAR   r0x1005
002A   3780           00201         JBCLR   r0x1005,7
002B   2800           00202         GOTO    _00114_DS_
002C   1600           00203         MOVAR   r0x1004
002D   0DFF           00204         ANDAI   0xff
002E   3103           00205         JBSET   STATUS,2
002F   2800           00206         GOTO    _00114_DS_
                      00207 ;;[ICODE] ../../libsdcc_mc30/ulong2fs.c:72:     if iTemp6 [k10 lr18:19 so:0]{ ia0 a2p0 re0 rm0 nos0 ru0 dp0}{char fixed} != 0 goto _iffalse_1($10)
                      00208 ;;[ICODE] ../../libsdcc_mc30/ulong2fs.c:73:     iTemp9 [k13 lr20:28 so:0]{ ia0 a2p0 re0 rm0 nos0 ru0 dp0}{int fixed}{ sir@ ___ulong2fs_exp_1_22}[r0x1004 r0x1005 ] := iTemp5 [k9 lr7:20 so:0]{ ia0 a2p0 re0 rm0 nos0 ru0 dp0}{int fixed}{ sir@ ___ulong2fs_exp_1_22}[r0x1004 r0x1005 ]
                      00209 ;;[ICODE] ../../libsdcc_mc30/ulong2fs.c:73:  _dobody_0($6) :
                      00210 ;;[ICODE] ../../libsdcc_mc30/ulong2fs.c:74:     iTemp0 [k2 lr3:42 so:0]{ ia0 a2p0 re1 rm0 nos0 ru0 dp0}{unsigned-long-int fixed}{ sir@ ___ulong2fs_a_1_21}[r0x1000 r0x1001 r0x1002 r0x1003 ] = iTemp0 [k2 lr3:42 so:0]{ ia0 a2p0 re1 rm0 nos0 ru0 dp0}{unsigned-long-int fixed}{ sir@ ___ulong2fs_a_1_21}[r0x1000 r0x1001 r0x1002 r0x1003 ] << 0x1 {const-unsigned-char literal}
0030                  00211 _00110_DS_
                      00212 ;       .line   74; "../../libsdcc_mc30/ulong2fs.c"     a<<=1;
0030   3C03           00213         BCLR    STATUS,0
0031   1480           00214         RLR     r0x1007
0032   1480           00215         RLR     r0x1006
0033   1480           00216         RLR     r0x1005
0034   1480           00217         RLR     r0x1004
                      00218 ;;[ICODE] ../../libsdcc_mc30/ulong2fs.c:75:     iTemp9 [k13 lr20:28 so:0]{ ia0 a2p0 re0 rm0 nos0 ru0 dp0}{int fixed}{ sir@ ___ulong2fs_exp_1_22}[r0x1004 r0x1005 ] = iTemp9 [k13 lr20:28 so:0]{ ia0 a2p0 re0 rm0 nos0 ru0 dp0}{int fixed}{ sir@ ___ulong2fs_exp_1_22}[r0x1004 r0x1005 ] - 0x1 {const-unsigned-char literal}
                      00219 ;       .line   75; "../../libsdcc_mc30/ulong2fs.c"     exp--;
0035   0BFF           00220         MOVAI   0xff
0036   1F80           00221         ADDRA   r0x1008
0037   3003           00222         JBSET   STATUS,0
0038   1B80           00223         DECR    r0x1009
                      00224 ;;[ICODE] ../../libsdcc_mc30/ulong2fs.c:76:     iTemp10 [k14 lr26:27 so:0]{ ia0 a2p0 re0 rm0 nos0 ru0 dp0}{char fixed} = iTemp0 [k2 lr3:42 so:0]{ ia0 a2p0 re1 rm0 nos0 ru0 dp0}{unsigned-long-int fixed}{ sir@ ___ulong2fs_a_1_21}[r0x1000 r0x1001 r0x1002 r0x1003 ] & 0xff800000 {const-long-int literal}
                      00225 ;       .line   76; "../../libsdcc_mc30/ulong2fs.c"     } while (a < HIDDEN);
0039   1600           00226         MOVAR   r0x1005
003A   3380           00227         JBSET   r0x1005,7
003B   2800           00228         GOTO    _00110_DS_
003C   1600           00229         MOVAR   r0x1004
003D   0DFF           00230         ANDAI   0xff
003E   3503           00231         JBCLR   STATUS,2
003F   2800           00232         GOTO    _00110_DS_
                      00233 ;;[ICODE] ../../libsdcc_mc30/ulong2fs.c:76:     if iTemp10 [k14 lr26:27 so:0]{ ia0 a2p0 re0 rm0 nos0 ru0 dp0}{char fixed} == 0 goto _dobody_0($6)
                      00234 ;;[ICODE] ../../libsdcc_mc30/ulong2fs.c:76:     iTemp1 [k4 lr17:40 so:0]{ ia0 a2p0 re1 rm0 nos0 ru0 dp0}{int fixed}[r0x1006 r0x1007 ] := iTemp9 [k13 lr20:28 so:0]{ ia0 a2p0 re0 rm0 nos0 ru0 dp0}{int fixed}{ sir@ ___ulong2fs_exp_1_22}[r0x1004 r0x1005 ]
0040   1600           00235         MOVAR   r0x1008
0041   1580           00236         MOVRA   r0x100A
0042   1600           00237         MOVAR   r0x1009
0043   1580           00238         MOVRA   r0x100B
                      00239 ;;[ICODE] ../../libsdcc_mc30/ulong2fs.c:76:  _iffalse_1($10) :
                      00240 ;;[ICODE] ../../libsdcc_mc30/ulong2fs.c:87:     iTemp11 [k15 lr30:31 so:0]{ ia0 a2p0 re0 rm0 nos0 ru0 dp0}{unsigned-long-int register}[r0x1004 r0x1005 r0x1008 r0x1009 ] = iTemp0 [k2 lr3:42 so:0]{ ia0 a2p0 re1 rm0 nos0 ru0 dp0}{unsigned-long-int fixed}{ sir@ ___ulong2fs_a_1_21}[r0x1000 r0x1001 r0x1002 r0x1003 ] & 0x7fffff {unsigned-long-int literal}
                      00241 ;;100   MOVAR   r0x1007
0044                  00242 _00114_DS_
                      00243 ;       .line   87; "../../libsdcc_mc30/ulong2fs.c"     if ((a&0x7fffff)==0x7fffff) {
0044   1600           00244         MOVAR   r0x1006
0045   1580           00245         MOVRA   r0x1009
0046   0B7F           00246         MOVAI   0x7f
0047   1E00           00247         ANDAR   r0x1005
0048   1580           00248         MOVRA   r0x100C
0049   1D80           00249         CLRR    r0x100D
                      00250 ;;[ICODE] ../../libsdcc_mc30/ulong2fs.c:87:     iTemp12 [k16 lr31:32 so:0]{ ia0 a2p0 re0 rm0 nos0 ru0 dp0}{char fixed} = iTemp11 [k15 lr30:31 so:0]{ ia0 a2p0 re0 rm0 nos0 ru0 dp0}{unsigned-long-int register}[r0x1004 r0x1005 r0x1008 r0x1009 ] == 0x7fffff {unsigned-long-int literal}
                      00251 ;;99    MOVAR   r0x1008
004A   1600           00252         MOVAR   r0x1007
004B   1580           00253         MOVRA   r0x1008
004C   08FF           00254         XORAI   0xff
004D   3103           00255         JBSET   STATUS,2
004E   2800           00256         GOTO    _00116_DS_
004F   1600           00257         MOVAR   r0x1009
0050   08FF           00258         XORAI   0xff
0051   3103           00259         JBSET   STATUS,2
0052   2800           00260         GOTO    _00116_DS_
0053   1600           00261         MOVAR   r0x100C
0054   087F           00262         XORAI   0x7f
0055   3103           00263         JBSET   STATUS,2
0056   2800           00264         GOTO    _00116_DS_
0057   1600           00265         MOVAR   r0x100D
0058   0800           00266         XORAI   0x00
0059   3103           00267         JBSET   STATUS,2
005A   2800           00268         GOTO    _00116_DS_
                      00269 ;;[ICODE] ../../libsdcc_mc30/ulong2fs.c:87:     if iTemp12 [k16 lr31:32 so:0]{ ia0 a2p0 re0 rm0 nos0 ru0 dp0}{char fixed} == 0 goto _iffalse_2($12)
                      00270 ;;[ICODE] ../../libsdcc_mc30/ulong2fs.c:88:     iTemp0 [k2 lr3:42 so:0]{ ia0 a2p0 re1 rm0 nos0 ru0 dp0}{unsigned-long-int fixed}{ sir@ ___ulong2fs_a_1_21}[r0x1000 r0x1001 r0x1002 r0x1003 ] := 0x0 {unsigned-long-int literal}
                      00271 ;       .line   88; "../../libsdcc_mc30/ulong2fs.c"     a=0;
005B   1D80           00272         CLRR    r0x1007
005C   1D80           00273         CLRR    r0x1006
005D   1D80           00274         CLRR    r0x1005
005E   1D80           00275         CLRR    r0x1004
                      00276 ;;[ICODE] ../../libsdcc_mc30/ulong2fs.c:89:     iTemp1 [k4 lr17:40 so:0]{ ia0 a2p0 re1 rm0 nos0 ru0 dp0}{int fixed}[r0x1006 r0x1007 ] = iTemp1 [k4 lr17:40 so:0]{ ia0 a2p0 re1 rm0 nos0 ru0 dp0}{int fixed}[r0x1006 r0x1007 ] + 0x1 {const-unsigned-char literal}
                      00277 ;       .line   89; "../../libsdcc_mc30/ulong2fs.c"     exp++;
005F   1980           00278         INCR    r0x100A
0060   3503           00279         JBCLR   STATUS,2
0061   1980           00280         INCR    r0x100B
                      00281 ;;[ICODE] ../../libsdcc_mc30/ulong2fs.c:89:  _iffalse_2($12) :
                      00282 ;;[ICODE] ../../libsdcc_mc30/ulong2fs.c:93:     iTemp0 [k2 lr3:42 so:0]{ ia0 a2p0 re1 rm0 nos0 ru0 dp0}{unsigned-long-int fixed}{ sir@ ___ulong2fs_a_1_21}[r0x1000 r0x1001 r0x1002 r0x1003 ] = iTemp0 [k2 lr3:42 so:0]{ ia0 a2p0 re1 rm0 nos0 ru0 dp0}{unsigned-long-int fixed}{ sir@ ___ulong2fs_a_1_21}[r0x1000 r0x1001 r0x1002 r0x1003 ] & 0xff7fffff {unsigned-long-int literal}
0062                  00283 _00116_DS_
                      00284 ;       .line   93; "../../libsdcc_mc30/ulong2fs.c"     a &= ~HIDDEN ;
0062   3F80           00285         BCLR    r0x1005,7
                      00286 ;;[ICODE] ../../libsdcc_mc30/ulong2fs.c:95:     iTemp16 [k21 lr39:43 so:0]{ ia0 a2p0 re0 rm1 nos0 ru0 dp0}{volatile-long-int near* fixed}[remat] = &[___ulong2fs_fl_1_22 [k20 lr0:0 so:0]{ ia0 a2p0 re0 rm0 nos0 ru0 dp0}{volatile-struct float_long fixed}]
                      00287 ;;[ICODE] ../../libsdcc_mc30/ulong2fs.c:95:     iTemp18 [k24 lr40:41 so:0]{ ia0 a2p0 re0 rm0 nos0 ru0 dp0}{unsigned-long-int fixed}[r0x1004 r0x1005 r0x1008 r0x1009 ] = (unsigned-long-int fixed)iTemp1 [k4 lr17:40 so:0]{ ia0 a2p0 re1 rm0 nos0 ru0 dp0}{int fixed}[r0x1006 r0x1007 ]
                      00288 ;       .line   95; "../../libsdcc_mc30/ulong2fs.c"     fl.l = PACK(0,(unsigned long)exp, a);
0063   1600           00289         MOVAR   r0x100A
0064   1580           00290         MOVRA   r0x1008
0065   1600           00291         MOVAR   r0x100B
0066   1580           00292         MOVRA   r0x1009
0067   0B00           00293         MOVAI   0x00
0068   3780           00294         JBCLR   r0x1009,7
0069   0BFF           00295         MOVAI   0xff
006A   1580           00296         MOVRA   r0x100D
006B   1580           00297         MOVRA   r0x100C
                      00298 ;;[ICODE] ../../libsdcc_mc30/ulong2fs.c:95:     iTemp19 [k25 lr41:42 so:0]{ ia0 a2p0 re0 rm0 nos0 ru0 dp0}{unsigned-long-int fixed}[r0x1006 r0x1007 r0x100A r0x100B ] = iTemp18 [k24 lr40:41 so:0]{ ia0 a2p0 re0 rm0 nos0 ru0 dp0}{unsigned-long-int fixed}[r0x1004 r0x1005 r0x1008 r0x1009 ] << 0x17 {const-unsigned-char literal}
006C   1300           00299         RRAR    r0x1009
006D   1300           00300         RRAR    r0x1008
006E   1580           00301         MOVRA   r0x100E
006F   1D80           00302         CLRR    r0x100F
0070   1380           00303         RRR     r0x100F
0071   1D80           00304         CLRR    r0x100B
0072   1D80           00305         CLRR    r0x100A
                      00306 ;;[ICODE] ../../libsdcc_mc30/ulong2fs.c:95:     iTemp21 [k27 lr42:43 so:0]{ ia0 a2p0 re0 rm0 nos0 ru0 dp0}{unsigned-long-int fixed}[r0x1000 r0x1001 r0x1002 r0x1003 ] = iTemp19 [k25 lr41:42 so:0]{ ia0 a2p0 re0 rm0 nos0 ru0 dp0}{unsigned-long-int fixed}[r0x1006 r0x1007 r0x100A r0x100B ] | iTemp0 [k2 lr3:42 so:0]{ ia0 a2p0 re1 rm0 nos0 ru0 dp0}{unsigned-long-int fixed}{ sir@ ___ulong2fs_a_1_21}[r0x1000 r0x1001 r0x1002 r0x1003 ]
0073   0B00           00307         MOVAI   0x00
0074   1780           00308         ORRA    r0x1007
0075   0B00           00309         MOVAI   0x00
0076   1780           00310         ORRA    r0x1006
0077   1600           00311         MOVAR   r0x100F
0078   1780           00312         ORRA    r0x1005
0079   1600           00313         MOVAR   r0x100E
007A   1780           00314         ORRA    r0x1004
                      00315 ;;[ICODE] ../../libsdcc_mc30/ulong2fs.c:95:     *(iTemp16 [k21 lr39:43 so:0]{ ia1 a2p0 re0 rm1 nos0 ru0 dp0}{volatile-long-int near* fixed}[remat]) := iTemp21 [k27 lr42:43 so:0]{ ia0 a2p0 re0 rm0 nos0 ru0 dp0}{unsigned-long-int fixed}[r0x1000 r0x1001 r0x1002 r0x1003 ]
                      00316 ;;gen.c:6374: size=3/4, offset=0, AOP_TYPE(res)=8
007B   1600           00317         MOVAR   r0x1007
007C   1580           00318         MOVRA   (___ulong2fs_fl_1_22 + 0)
                      00319 ;;gen.c:6374: size=2/4, offset=1, AOP_TYPE(res)=8
007D   1600           00320         MOVAR   r0x1006
007E   1580           00321         MOVRA   (___ulong2fs_fl_1_22 + 1)
                      00322 ;;gen.c:6374: size=1/4, offset=2, AOP_TYPE(res)=8
007F   1600           00323         MOVAR   r0x1005
0080   1580           00324         MOVRA   (___ulong2fs_fl_1_22 + 2)
                      00325 ;;gen.c:6374: size=0/4, offset=3, AOP_TYPE(res)=8
0081   1600           00326         MOVAR   r0x1004
0082   1580           00327         MOVRA   (___ulong2fs_fl_1_22 + 3)
                      00328 ;;[ICODE] ../../libsdcc_mc30/ulong2fs.c:97:     iTemp22 [k28 lr44:45 so:0]{ ia0 a2p0 re0 rm1 nos0 ru0 dp0}{volatile-float near* fixed}[remat] = &[___ulong2fs_fl_1_22 [k20 lr0:0 so:0]{ ia0 a2p0 re0 rm0 nos0 ru0 dp0}{volatile-struct float_long fixed}]
                      00329 ;;[ICODE] ../../libsdcc_mc30/ulong2fs.c:97:     iTemp24 [k31 lr45:46 so:0]{ ia0 a2p0 re0 rm0 nos0 ru1 dp0}{volatile-float fixed}[r0x1000 r0x1001 r0x1002 r0x1003 ] = @[iTemp22 [k28 lr44:45 so:0]{ ia1 a2p0 re0 rm1 nos0 ru0 dp0}{volatile-float near* fixed}[remat] + 0x0 {const-unsigned-char literal}]
                      00330 ;       .line   97; "../../libsdcc_mc30/ulong2fs.c"     return (fl.f);
0083   1600           00331         MOVAR   (___ulong2fs_fl_1_22 + 0)
0084   1580           00332         MOVRA   r0x1007
0085   1600           00333         MOVAR   (___ulong2fs_fl_1_22 + 1)
0086   1580           00334         MOVRA   r0x1006
0087   1600           00335         MOVAR   (___ulong2fs_fl_1_22 + 2)
0088   1580           00336         MOVRA   r0x1005
0089   1600           00337         MOVAR   (___ulong2fs_fl_1_22 + 3)
008A   1580           00338         MOVRA   r0x1004
                      00339 ;;[ICODE] ../../libsdcc_mc30/ulong2fs.c:97:     ret iTemp24 [k31 lr45:46 so:0]{ ia0 a2p0 re0 rm0 nos0 ru1 dp0}{volatile-float fixed}[r0x1000 r0x1001 r0x1002 r0x1003 ]
008B   1600           00340         MOVAR   r0x1007
008C   1580           00341         MOVRA   STK02
008D   1600           00342         MOVAR   r0x1006
008E   1580           00343         MOVRA   STK01
008F   1600           00344         MOVAR   r0x1005
0090   1580           00345         MOVRA   STK00
0091   1600           00346         MOVAR   r0x1004
                      00347 ;;[ICODE] ../../libsdcc_mc30/ulong2fs.c:97:  _return($13) :
                      00348 ;;[ICODE] ../../libsdcc_mc30/ulong2fs.c:97:     eproc ___ulong2fs [k1 lr0:0 so:0]{ ia0 a2p0 re0 rm0 nos0 ru0 dp0}{float function ( unsigned-long-int fixed) fixed}
0092                  00349 _00117_DS_
0092   000C           00350         RETURN  
                      00351 ; exit point of ___ulong2fs
                      00352 
                      00353 
                      00354 ;       code size estimation:
                      00355 ;         147+    0 =   147 instructions (  294 byte)
                      00356 
                      00357         end
gpasm-2.0.0_beta2 (Nov  6 2017)ulong2fs.asm       2018-1-12  13:53:06          PAGE  2


SYMBOL TABLE
  LABEL                             VALUE

BUZE                              00000005
C                                 00000000
DBLCK                             00000004
DC                                00000001
DDR0                              00000045
DDR00                             00000000
DDR01                             00000001
DDR02                             00000002
DDR03                             00000003
DDR1                              00000046
DDR10                             00000000
DDR11                             00000001
DDR12                             00000002
DDR13                             00000003
DDR14                             00000004
DDR15                             00000005
DDR16                             00000006
DDR17                             00000007
EIS                               00000006
FSR                               00000004
FSR0                              00000000
FSR1                              00000001
FSR2                              00000002
FSR3                              00000003
FSR4                              00000004
FSR5                              00000005
GIE                               00000007
INDF                              00000000
INDF0                             00000000
INDF1                             00000001
INDF2                             00000002
INDF3                             00000003
INDF4                             00000004
INDF5                             00000005
INDF6                             00000006
INDF7                             00000007
INTECON                           0000000E
INTFLAG                           0000000F
INTIE                             00000002
INTIF                             00000002
INTOM                             00000006
KBIE                              00000001
KBIF                              00000001
KBIM                              00000009
KBIM0                             00000000
KBIM1                             00000001
KBIM2                             00000002
KBIM3                             00000003
KBIM4                             00000004
KBIM5                             00000005
KBIM6                             00000006
KBIM7                             00000007
LVDEN                             00000000
LVDF                              00000005
LVDSEL0                           00000001
LVDSEL1                           00000002
LVDSEL2                           00000003
LVDSEL3                           00000004
MCR                               00000008
ODCON                             0000000C
P0                                00000005
P00D                              00000000
P00PD                             00000000
P01D                              00000001
P01PD                             00000001
P02D                              00000002
P02PD                             00000002
P03D                              00000003
P03PD                             00000003
P1                                00000006
P10D                              00000000
P10OD                             00000000
P10PD                             00000004
P10PU                             00000000
P11D                              00000001
P11OD                             00000001
P11PD                             00000005
P11PU                             00000001
P12D                              00000002
P12OD                             00000002
P12PD                             00000006
P12PU                             00000002
P13D                              00000003
P13PU                             00000003
P14D                              00000004
P14OD                             00000004
P14PU                             00000004
P15D                              00000005
P15OD                             00000005
P15PU                             00000005
P16D                              00000006
P16OD                             00000006
P16PU                             00000006
P17D                              00000007
P17OD                             00000007
P17PU                             00000007
PC0                               00000000
PC1                               00000001
PC2                               00000002
PC3                               00000003
PC4                               00000004
PC5                               00000005
PC6                               00000006
PC7                               00000007
PCH0                              00000000
PCH1                              00000001
PCL                               00000002
PCLATH                            0000000A
PD                                00000003
PDCON                             0000000B
PMW0OE                            00000007
PMW1E                             00000001
PUCON                             0000000D
PWM0E                             00000006
PWM1OE                            00000006
PWM2E                             00000000
PWM2OE                            00000005
PWMCR                             00000048
PWMINV                            00000002
PWMMD                             00000003
RST                               00000007
STATUS                            00000003
STK00                             00000000
STK01                             00000000
STK02                             00000000
STK03                             00000000
STK04                             00000000
STK05                             00000000
STK06                             00000000
T0C0                              00000000
T0C1                              00000001
T0C2                              00000002
T0C3                              00000003
T0C4                              00000004
T0C5                              00000005
T0C6                              00000006
T0C7                              00000007
T0CNT                             00000001
T0CR                              00000041
T0IE                              00000000
T0IF                              00000000
T0PR0                             00000000
T0PR1                             00000001
T0PR2                             00000002
T0PTA                             00000003
T0PTS                             00000005
T0SE                              00000004
T1C0                              00000000
T1C1                              00000001
T1C2                              00000002
T1C3                              00000003
T1C4                              00000004
T1C5                              00000005
T1C6                              00000006
T1C7                              00000007
T1CNT                             0000004D
T1CR                              0000004C
T1DAT0                            0000004F
T1DAT00                           00000000
T1DAT01                           00000001
T1DAT02                           00000002
T1DAT03                           00000003
T1DAT04                           00000004
T1DAT05                           00000005
T1DAT06                           00000006
T1DAT07                           00000007
T1DAT1                            00000049
T1DAT10                           00000000
T1DAT11                           00000001
T1DAT12                           00000002
T1DAT13                           00000003
T1DAT14                           00000004
T1DAT15                           00000005
T1DAT16                           00000006
T1DAT17                           00000007
T1DAT2                            0000004A
T1DAT20                           00000000
T1DAT21                           00000001
T1DAT22                           00000002
T1DAT23                           00000003
T1DAT24                           00000004
T1DAT25                           00000005
T1DAT26                           00000006
T1DAT27                           00000007
T1IE                              00000001
T1IF                              00000000
T1LOAD                            0000004E
T1LOAD0                           00000000
T1LOAD1                           00000001
T1LOAD2                           00000002
T1LOAD3                           00000003
T1LOAD4                           00000004
T1LOAD5                           00000005
T1LOAD6                           00000006
T1LOAD7                           00000007
T1PR0                             00000000
T1PR1                             00000001
T1PR2                             00000002
T1PTS0                            00000003
T1PTS1                            00000004
TBS                               00000007
TC1EN                             00000007
TM0CR                             0000004B
TO                                00000004
WDTEN                             00000007
Z                                 00000002
_00107_DS_                        00000018
_00110_DS_                        00000030
_00114_DS_                        00000044
_00116_DS_                        00000062
_00117_DS_                        00000092
_00121_DS_                        00000015
_00124_DS_                        00000025
_CONFIG0                          00002000
_CONFIG1                          00002001
__30P011                          00000001
___fs2schar                       00000000
___fs2sint                        00000000
___fs2slong                       00000000
___fs2uchar                       00000000
___fs2uint                        00000000
___fs2ulong                       00000000
___fsadd                          00000000
___fsdiv                          00000000
___fseq                           00000000
___fsgt                           00000000
___fslt                           00000000
___fsmul                          00000000
___fsneq                          00000000
___fssub                          00000000
___schar2fs                       00000000
___sint2fs                        00000000
___slong2fs                       00000000
___uchar2fs                       00000000
___uint2fs                        00000000
___ulong2fs                       00000000
___ulong2fs_fl_1_22               0000000C
r0x1004                           00000003
r0x1005                           00000002
r0x1006                           00000001
r0x1007                           00000000
r0x1008                           00000004
r0x1009                           00000005
r0x100A                           00000006
r0x100B                           00000007
r0x100C                           00000008
r0x100D                           00000009
r0x100E                           0000000B
r0x100F                           0000000A

Errors   :     0
Warnings :     0 reported,     0 suppressed
Messages :     0 reported,     0 suppressed

