gpasm-2.0.0_beta2 (Nov  6 2017)_divschar.asm      2018-1-11  14:01:18          PAGE  1


LOC  OBJECT CODE     LINE SOURCE TEXT
  VALUE

                      00001 ;--------------------------------------------------------
                      00002 ; File Created by SN-SDCC : SinoMCU ANSI-C Compiler
                      00003 ; Version 1.1.0 (Dec 19 2017) (MINGW32)
                      00004 ; This file was generated Thu Jan 11 14:01:18 2018
                      00005 ;--------------------------------------------------------
                      00006 ; MC32 port for the RISC core
                      00007 ;--------------------------------------------------------
                      00008 ;       .file   "../../libsdcc_mc32/_divschar.c"
                      00009         list    p=3221
                      00010         radix dec
                      00011         include "3221.inc"
                      00001                 LIST
                      00002 ;mc32p7010.inc    Standard Header File, Version 1.00 by Sinomcu
                      00435                 LIST
                      00012 ;--------------------------------------------------------
                      00013 ; external declarations
                      00014 ;--------------------------------------------------------
                      00015         extern  __divuchar
                      00016 
                      00017         extern STK06
                      00018         extern STK05
                      00019         extern STK04
                      00020         extern STK03
                      00021         extern STK02
                      00022         extern STK01
                      00023         extern STK00
                      00024 ;--------------------------------------------------------
                      00025 ; global declarations
                      00026 ;--------------------------------------------------------
                      00027         global  __divschar
                      00028 
                      00029 ;--------------------------------------------------------
                      00030 ; global definitions
                      00031 ;--------------------------------------------------------
                      00032 ;--------------------------------------------------------
                      00033 ; absolute symbol definitions
                      00034 ;--------------------------------------------------------
                      00035 ;--------------------------------------------------------
                      00036 ; compiler-defined variables
                      00037 ;--------------------------------------------------------
                      00038 UDL__divschar_0 udata
0000                  00039 r0x1000 res     1
0000                  00040 r0x1001 res     1
0001                  00041 r0x1002 res     1
0001                  00042 r0x1003 res     1
0002                  00043 r0x1004 res     1
0002                  00044 r0x1005 res     1
0003                  00045 r0x1006 res     1
0003                  00046 r0x1007 res     1
0004                  00047 r0x1008 res     1
                      00048 ;--------------------------------------------------------
                      00049 ; initialized data
                      00050 ;--------------------------------------------------------
                      00051 
                      00052 ;@Allocation info for local variables in function '_divschar'
                      00053 ;@_divschar _divuchar                 Allocated to registers ;size:2
                      00054 ;@_divschar b                         Allocated to registers r0x1001 ;size:1
                      00055 ;@_divschar a                         Allocated to registers r0x1000 ;size:1
                      00056 ;@end Allocation info for local variables in function '_divschar';
                      00057 
                      00058 ;--------------------------------------------------------
                      00059 ; overlayable items in internal ram 
                      00060 ;--------------------------------------------------------
                      00061 ;       udata_ovr
                      00062 ;--------------------------------------------------------
                      00063 ; code
                      00064 ;--------------------------------------------------------
                      00065 code__divschar  code
                      00066 ;***
                      00067 ;  pBlock Stats: dbName = C
                      00068 ;***
                      00069 ;entry:  __divschar     ;Function start
                      00070 ; 2 exit points
                      00071 ;has an exit
                      00072 ;functions called:
                      00073 ;   __divuchar
                      00074 ;   __divuchar
                      00075 ;   __divuchar
                      00076 ;   __divuchar
                      00077 ;   __divuchar
                      00078 ;   __divuchar
                      00079 ;   __divuchar
                      00080 ;   __divuchar
                      00081 ;11 compiler assigned registers:
                      00082 ;   r0x1000
                      00083 ;   STK00
                      00084 ;   r0x1001
                      00085 ;   r0x1002
                      00086 ;   r0x1003
                      00087 ;   r0x1004
                      00088 ;   r0x1005
                      00089 ;   r0x1006
                      00090 ;   r0x1007
                      00091 ;   r0x1008
                      00092 ;   r0x1009
                      00093 ;; Starting pCode block
                      00094 ;;[ICODE] ../../libsdcc_mc32/_divschar.c:32:  _entry($11) :
                      00095 ;;[ICODE] ../../libsdcc_mc32/_divschar.c:32:    proc __divschar [k1 lr0:0 so:0]{ ia0 a2p0 re0 rm0 nos0 ru0 dp0}{char function ( char fixed, char fixed) fixed}
0000                  00096 __divschar      ;Function start
                      00097 ; 2 exit points
                      00098 ;;[ICODE] ../../libsdcc_mc32/_divschar.c:32: iTemp0 [k2 lr3:48 so:0]{ ia0 a2p0 re1 rm0 nos0 ru0 dp0}{char fixed}{ sir@ __divschar_a_1_2}[r0x1000 ] = recv __divschar [k1 lr0:0 so:0]{ ia0 a2p0 re0 rm0 nos0 ru0 dp0}{char function ( char fixed, char fixed) fixed}
                      00099 ;       .line   32; "../../libsdcc_mc32/_divschar.c"    _divschar (signed char a, signed char b)
0000   5600           00100         MOVRA   r0x1000
                      00101 ;;[ICODE] ../../libsdcc_mc32/_divschar.c:32: iTemp1 [k4 lr4:50 so:0]{ ia0 a2p0 re1 rm0 nos0 ru0 dp0}{char fixed}{ sir@ __divschar_b_1_2}[r0x1001 ] = recv __divschar [k1 lr0:0 so:0]{ ia0 a2p0 re0 rm0 nos0 ru0 dp0}{char function ( char fixed, char fixed) fixed}
0001   5800           00102         MOVAR   STK00
0002   5600           00103         MOVRA   r0x1001
                      00104 ;;[ICODE] ../../libsdcc_mc32/_divschar.c:34:    iTemp2 [k6 lr5:6 so:0]{ ia0 a2p0 re0 rm0 nos0 ru0 dp0}{char fixed} = iTemp0 [k2 lr3:48 so:0]{ ia0 a2p0 re1 rm0 nos0 ru0 dp0}{char fixed}{ sir@ __divschar_a_1_2}[r0x1000 ] < 0x0 {const-char literal}
                      00105 ;;signed compare: left < lit(0x0=0), size=1, mask=ff
                      00106 ;       .line   34; "../../libsdcc_mc32/_divschar.c"    if (a < 0) {
0003   C187           00107         BSET    PFLAG,0
0004   EE00           00108         JBSET   r0x1000,7
0005   D187           00109         BCLR    PFLAG,0
0006   E187           00110         JBSET   PFLAG,0
0007   A000           00111         GOTO    _00112_DS_
                      00112 ;;genSkipc:3195: created from rifx:00DD608C
                      00113 ;;[ICODE] ../../libsdcc_mc32/_divschar.c:34:    if iTemp2 [k6 lr5:6 so:0]{ ia0 a2p0 re0 rm0 nos0 ru0 dp0}{char fixed} == 0 goto _iffalse_2($8)
                      00114 ;;[ICODE] ../../libsdcc_mc32/_divschar.c:36:    iTemp3 [k7 lr7:8 so:0]{ ia0 a2p0 re0 rm0 nos0 ru0 dp0}{char fixed} = iTemp1 [k4 lr4:50 so:0]{ ia0 a2p0 re1 rm0 nos0 ru0 dp0}{char fixed}{ sir@ __divschar_b_1_2}[r0x1001 ] < 0x0 {const-char literal}
                      00115 ;;signed compare: left < lit(0x0=0), size=1, mask=ff
                      00116 ;       .line   36; "../../libsdcc_mc32/_divschar.c"    if (b < 0)
0008   C187           00117         BSET    PFLAG,0
0009   EE00           00118         JBSET   r0x1001,7
000A   D187           00119         BCLR    PFLAG,0
000B   E187           00120         JBSET   PFLAG,0
000C   A000           00121         GOTO    _00106_DS_
                      00122 ;;genSkipc:3195: created from rifx:00DD608C
                      00123 ;;[ICODE] ../../libsdcc_mc32/_divschar.c:36:    if iTemp3 [k7 lr7:8 so:0]{ ia0 a2p0 re0 rm0 nos0 ru0 dp0}{char fixed} == 0 goto _iffalse_0($2)
                      00124 ;;[ICODE] ../../libsdcc_mc32/_divschar.c:37:    iTemp4 [k9 lr9:10 so:0]{ ia0 a2p0 re0 rm0 nos0 ru0 dp0}{int fixed}[r0x1002 r0x1003 ] = (int fixed)iTemp0 [k2 lr3:48 so:0]{ ia0 a2p0 re1 rm0 nos0 ru0 dp0}{char fixed}{ sir@ __divschar_a_1_2}[r0x1000 ]
                      00125 ;       .line   37; "../../libsdcc_mc32/_divschar.c"    return _divuchar ((unsigned int)-a, (unsigned int)-b);
000D   5800           00126         MOVAR   r0x1000
000E   5600           00127         MOVRA   r0x1002
000F   7600           00128         CLRR    r0x1003
0010   FE00           00129         JBCLR   r0x1002,7
0011   6E00           00130         DECR    r0x1003
                      00131 ;;[ICODE] ../../libsdcc_mc32/_divschar.c:37:    iTemp5 [k10 lr10:11 so:0]{ ia0 a2p0 re0 rm0 nos0 ru0 dp0}{int fixed}[r0x1002 r0x1003 ] = - iTemp4 [k9 lr9:10 so:0]{ ia0 a2p0 re0 rm0 nos0 ru0 dp0}{int fixed}[r0x1002 r0x1003 ]
0012   7200           00132         COMR    r0x1002
0013   7200           00133         COMR    r0x1003
0014   6600           00134         INCR    r0x1002
0015   F587           00135         JBCLR   PFLAG,2
0016   6600           00136         INCR    r0x1003
                      00137 ;;[ICODE] ../../libsdcc_mc32/_divschar.c:37:    iTemp6 [k11 lr11:12 so:0]{ ia0 a2p0 re0 rm0 nos0 ru0 dp0}{unsigned-int fixed}[r0x1004 r0x1005 ] = (unsigned-int fixed)iTemp5 [k10 lr10:11 so:0]{ ia0 a2p0 re0 rm0 nos0 ru0 dp0}{int fixed}[r0x1002 r0x1003 ]
0017   5800           00138         MOVAR   r0x1002
0018   5600           00139         MOVRA   r0x1002
0019   5600           00140         MOVRA   r0x1004
001A   5800           00141         MOVAR   r0x1003
001B   5600           00142         MOVRA   r0x1005
                      00143 ;;[ICODE] ../../libsdcc_mc32/_divschar.c:37:    iTemp7 [k12 lr12:18 so:0]{ ia0 a2p0 re0 rm0 nos0 ru1 dp0}{unsigned-char fixed}[r0x1002 ] = (unsigned-char fixed)iTemp6 [k11 lr11:12 so:0]{ ia0 a2p0 re0 rm0 nos0 ru0 dp0}{unsigned-int fixed}[r0x1004 r0x1005 ]
                      00144 ;;108   MOVAR   r0x1004
                      00145 ;;[ICODE] ../../libsdcc_mc32/_divschar.c:37:    iTemp8 [k13 lr13:14 so:0]{ ia0 a2p0 re0 rm0 nos0 ru0 dp0}{int fixed}[r0x1004 r0x1005 ] = (int fixed)iTemp1 [k4 lr4:50 so:0]{ ia0 a2p0 re1 rm0 nos0 ru0 dp0}{char fixed}{ sir@ __divschar_b_1_2}[r0x1001 ]
001C   5800           00146         MOVAR   r0x1001
001D   5600           00147         MOVRA   r0x1004
001E   7600           00148         CLRR    r0x1005
001F   FE00           00149         JBCLR   r0x1004,7
0020   6E00           00150         DECR    r0x1005
                      00151 ;;[ICODE] ../../libsdcc_mc32/_divschar.c:37:    iTemp9 [k14 lr14:15 so:0]{ ia0 a2p0 re0 rm0 nos0 ru0 dp0}{int fixed}[r0x1004 r0x1005 ] = - iTemp8 [k13 lr13:14 so:0]{ ia0 a2p0 re0 rm0 nos0 ru0 dp0}{int fixed}[r0x1004 r0x1005 ]
0021   7200           00152         COMR    r0x1004
0022   7200           00153         COMR    r0x1005
0023   6600           00154         INCR    r0x1004
0024   F587           00155         JBCLR   PFLAG,2
0025   6600           00156         INCR    r0x1005
                      00157 ;;[ICODE] ../../libsdcc_mc32/_divschar.c:37:    iTemp10 [k15 lr15:16 so:0]{ ia0 a2p0 re0 rm0 nos0 ru0 dp0}{unsigned-int fixed}[r0x1006 r0x1007 ] = (unsigned-int fixed)iTemp9 [k14 lr14:15 so:0]{ ia0 a2p0 re0 rm0 nos0 ru0 dp0}{int fixed}[r0x1004 r0x1005 ]
                      00158 ;;110   MOVAR   r0x1004
0026   5800           00159         MOVAR   r0x1005
0027   5600           00160         MOVRA   r0x1007
                      00161 ;;[ICODE] ../../libsdcc_mc32/_divschar.c:37:    iTemp11 [k16 lr16:18 so:0]{ ia0 a2p0 re0 rm0 nos0 ru0 dp0}{unsigned-char fixed}[r0x1004 ] = (unsigned-char fixed)iTemp10 [k15 lr15:16 so:0]{ ia0 a2p0 re0 rm0 nos0 ru0 dp0}{unsigned-int fixed}[r0x1006 r0x1007 ]
                      00162 ;;104   MOVAR   r0x1006
                      00163 ;;[ICODE] ../../libsdcc_mc32/_divschar.c:37:    send iTemp7 [k12 lr12:18 so:0]{ ia0 a2p0 re0 rm0 nos0 ru1 dp0}{unsigned-char fixed}[r0x1002 ]{argreg = 1}
                      00164 ;;[ICODE] ../../libsdcc_mc32/_divschar.c:37:    send iTemp11 [k16 lr16:18 so:0]{ ia0 a2p0 re0 rm0 nos0 ru0 dp0}{unsigned-char fixed}[r0x1004 ]{argreg = 1}
                      00165 ;;[ICODE] ../../libsdcc_mc32/_divschar.c:37:    iTemp12 [k19 lr19:20 so:0]{ ia0 a2p0 re0 rm0 nos0 ru1 dp0}{unsigned-char fixed}[r0x1002 ] = call __divuchar [k8 lr0:0 so:0]{ ia0 a2p0 re0 rm0 nos0 ru0 dp0}{unsigned-char function ( unsigned-char fixed, unsigned-char fixed) fixed}
                      00166 ;;103   MOVAR   r0x1004
                      00167 ;;109   MOVAR   r0x1006
0028   5800           00168         MOVAR   r0x1004
0029   5600           00169         MOVRA   r0x1006
002A   5600           00170         MOVRA   r0x1004
002B   5600           00171         MOVRA   STK00
002C   5800           00172         MOVAR   r0x1002
002D   8000           00173         CALL    __divuchar
002E   5600           00174         MOVRA   r0x1002
                      00175 ;;[ICODE] ../../libsdcc_mc32/_divschar.c:37:    ret iTemp12 [k19 lr19:20 so:0]{ ia0 a2p0 re0 rm0 nos0 ru1 dp0}{unsigned-char fixed}[r0x1002 ]
002F   5800           00176         MOVAR   r0x1002
0030   A000           00177         GOTO    _00114_DS_
                      00178 ;;[ICODE] ../../libsdcc_mc32/_divschar.c:37:  _iffalse_0($2) :
                      00179 ;;[ICODE] ../../libsdcc_mc32/_divschar.c:39:    iTemp13 [k20 lr22:23 so:0]{ ia0 a2p0 re0 rm0 nos0 ru0 dp0}{int fixed}[r0x1002 r0x1004 ] = (int fixed)iTemp0 [k2 lr3:48 so:0]{ ia0 a2p0 re1 rm0 nos0 ru0 dp0}{char fixed}{ sir@ __divschar_a_1_2}[r0x1000 ]
0031                  00180 _00106_DS_
                      00181 ;       .line   39; "../../libsdcc_mc32/_divschar.c"    return -_divuchar ((unsigned int)-a, (unsigned int)b);
0031   5800           00182         MOVAR   r0x1000
0032   5600           00183         MOVRA   r0x1002
0033   7600           00184         CLRR    r0x1004
0034   FE00           00185         JBCLR   r0x1002,7
0035   6E00           00186         DECR    r0x1004
                      00187 ;;[ICODE] ../../libsdcc_mc32/_divschar.c:39:    iTemp14 [k21 lr23:24 so:0]{ ia0 a2p0 re0 rm0 nos0 ru0 dp0}{int fixed}[r0x1002 r0x1004 ] = - iTemp13 [k20 lr22:23 so:0]{ ia0 a2p0 re0 rm0 nos0 ru0 dp0}{int fixed}[r0x1002 r0x1004 ]
0036   7200           00188         COMR    r0x1002
0037   7200           00189         COMR    r0x1004
0038   6600           00190         INCR    r0x1002
0039   F587           00191         JBCLR   PFLAG,2
003A   6600           00192         INCR    r0x1004
                      00193 ;;[ICODE] ../../libsdcc_mc32/_divschar.c:39:    iTemp15 [k22 lr24:25 so:0]{ ia0 a2p0 re0 rm0 nos0 ru0 dp0}{unsigned-int fixed}[r0x1006 r0x1007 ] = (unsigned-int fixed)iTemp14 [k21 lr23:24 so:0]{ ia0 a2p0 re0 rm0 nos0 ru0 dp0}{int fixed}[r0x1002 r0x1004 ]
003B   5800           00194         MOVAR   r0x1002
003C   5600           00195         MOVRA   r0x1002
003D   5600           00196         MOVRA   r0x1006
003E   5800           00197         MOVAR   r0x1004
003F   5600           00198         MOVRA   r0x1007
                      00199 ;;[ICODE] ../../libsdcc_mc32/_divschar.c:39:    iTemp16 [k23 lr25:29 so:0]{ ia0 a2p0 re0 rm0 nos0 ru1 dp0}{unsigned-char fixed}[r0x1002 ] = (unsigned-char fixed)iTemp15 [k22 lr24:25 so:0]{ ia0 a2p0 re0 rm0 nos0 ru0 dp0}{unsigned-int fixed}[r0x1006 r0x1007 ]
                      00200 ;;105   MOVAR   r0x1006
                      00201 ;;[ICODE] ../../libsdcc_mc32/_divschar.c:39:    iTemp17 [k24 lr26:27 so:0]{ ia0 a2p0 re0 rm0 nos0 ru0 dp0}{unsigned-int fixed}[r0x1006 r0x1007 ] = (unsigned-int fixed)iTemp1 [k4 lr4:50 so:0]{ ia0 a2p0 re1 rm0 nos0 ru0 dp0}{char fixed}{ sir@ __divschar_b_1_2}[r0x1001 ]
0040   5800           00202         MOVAR   r0x1001
0041   5600           00203         MOVRA   r0x1006
0042   7600           00204         CLRR    r0x1007
0043   FE00           00205         JBCLR   r0x1006,7
0044   6E00           00206         DECR    r0x1007
                      00207 ;;[ICODE] ../../libsdcc_mc32/_divschar.c:39:    iTemp18 [k25 lr27:29 so:0]{ ia0 a2p0 re0 rm0 nos0 ru0 dp0}{unsigned-char fixed}[r0x1008 ] = (unsigned-char fixed)iTemp17 [k24 lr26:27 so:0]{ ia0 a2p0 re0 rm0 nos0 ru0 dp0}{unsigned-int fixed}[r0x1006 r0x1007 ]
                      00208 ;;107   MOVAR   r0x1006
                      00209 ;;[ICODE] ../../libsdcc_mc32/_divschar.c:39:    send iTemp16 [k23 lr25:29 so:0]{ ia0 a2p0 re0 rm0 nos0 ru1 dp0}{unsigned-char fixed}[r0x1002 ]{argreg = 1}
                      00210 ;;[ICODE] ../../libsdcc_mc32/_divschar.c:39:    send iTemp18 [k25 lr27:29 so:0]{ ia0 a2p0 re0 rm0 nos0 ru0 dp0}{unsigned-char fixed}[r0x1008 ]{argreg = 1}
                      00211 ;;[ICODE] ../../libsdcc_mc32/_divschar.c:39:    iTemp19 [k26 lr30:31 so:0]{ ia0 a2p0 re0 rm0 nos0 ru0 dp0}{unsigned-char fixed}[r0x1002 ] = call __divuchar [k8 lr0:0 so:0]{ ia0 a2p0 re0 rm0 nos0 ru0 dp0}{unsigned-char function ( unsigned-char fixed, unsigned-char fixed) fixed}
                      00212 ;;106   MOVAR   r0x1008
0045   5800           00213         MOVAR   r0x1006
0046   5600           00214         MOVRA   r0x1008
0047   5600           00215         MOVRA   STK00
0048   5800           00216         MOVAR   r0x1002
0049   8000           00217         CALL    __divuchar
004A   5600           00218         MOVRA   r0x1002
                      00219 ;;[ICODE] ../../libsdcc_mc32/_divschar.c:39:    iTemp20 [k27 lr31:32 so:0]{ ia0 a2p0 re0 rm0 nos0 ru1 dp0}{unsigned-char fixed}[r0x1002 ] = - iTemp19 [k26 lr30:31 so:0]{ ia0 a2p0 re0 rm0 nos0 ru0 dp0}{unsigned-char fixed}[r0x1002 ]
004B   7200           00220         COMR    r0x1002
004C   6600           00221         INCR    r0x1002
                      00222 ;;[ICODE] ../../libsdcc_mc32/_divschar.c:39:    ret iTemp20 [k27 lr31:32 so:0]{ ia0 a2p0 re0 rm0 nos0 ru1 dp0}{unsigned-char fixed}[r0x1002 ]
004D   5800           00223         MOVAR   r0x1002
004E   A000           00224         GOTO    _00114_DS_
                      00225 ;;[ICODE] ../../libsdcc_mc32/_divschar.c:39:  _iffalse_2($8) :
                      00226 ;;[ICODE] ../../libsdcc_mc32/_divschar.c:42:    iTemp21 [k28 lr34:35 so:0]{ ia0 a2p0 re0 rm0 nos0 ru0 dp0}{char fixed} = iTemp1 [k4 lr4:50 so:0]{ ia0 a2p0 re1 rm0 nos0 ru0 dp0}{char fixed}{ sir@ __divschar_b_1_2}[r0x1001 ] < 0x0 {const-char literal}
                      00227 ;;signed compare: left < lit(0x0=0), size=1, mask=ff
004F                  00228 _00112_DS_
                      00229 ;       .line   42; "../../libsdcc_mc32/_divschar.c"    if (b < 0)
004F   C187           00230         BSET    PFLAG,0
0050   EE00           00231         JBSET   r0x1001,7
0051   D187           00232         BCLR    PFLAG,0
0052   E187           00233         JBSET   PFLAG,0
0053   A000           00234         GOTO    _00109_DS_
                      00235 ;;genSkipc:3195: created from rifx:00DD608C
                      00236 ;;[ICODE] ../../libsdcc_mc32/_divschar.c:42:    if iTemp21 [k28 lr34:35 so:0]{ ia0 a2p0 re0 rm0 nos0 ru0 dp0}{char fixed} == 0 goto _iffalse_1($5)
                      00237 ;;[ICODE] ../../libsdcc_mc32/_divschar.c:43:    iTemp22 [k29 lr36:37 so:0]{ ia0 a2p0 re0 rm0 nos0 ru0 dp0}{unsigned-int fixed}[r0x1002 r0x1006 ] = (unsigned-int fixed)iTemp0 [k2 lr3:48 so:0]{ ia0 a2p0 re1 rm0 nos0 ru0 dp0}{char fixed}{ sir@ __divschar_a_1_2}[r0x1000 ]
                      00238 ;       .line   43; "../../libsdcc_mc32/_divschar.c"    return -_divuchar ((unsigned int)a, (unsigned int)-b);
0054   5800           00239         MOVAR   r0x1000
0055   5600           00240         MOVRA   r0x1002
0056   7600           00241         CLRR    r0x1006
0057   FE00           00242         JBCLR   r0x1002,7
0058   6E00           00243         DECR    r0x1006
                      00244 ;;[ICODE] ../../libsdcc_mc32/_divschar.c:43:    iTemp23 [k30 lr37:43 so:0]{ ia0 a2p0 re0 rm0 nos0 ru1 dp0}{unsigned-char fixed}[r0x1007 ] = (unsigned-char fixed)iTemp22 [k29 lr36:37 so:0]{ ia0 a2p0 re0 rm0 nos0 ru0 dp0}{unsigned-int fixed}[r0x1002 r0x1006 ]
0059   5800           00245         MOVAR   r0x1002
005A   5600           00246         MOVRA   r0x1007
                      00247 ;;[ICODE] ../../libsdcc_mc32/_divschar.c:43:    iTemp24 [k31 lr38:39 so:0]{ ia0 a2p0 re0 rm0 nos0 ru0 dp0}{int fixed}[r0x1002 r0x1006 ] = (int fixed)iTemp1 [k4 lr4:50 so:0]{ ia0 a2p0 re1 rm0 nos0 ru0 dp0}{char fixed}{ sir@ __divschar_b_1_2}[r0x1001 ]
005B   5800           00248         MOVAR   r0x1001
005C   5600           00249         MOVRA   r0x1002
005D   7600           00250         CLRR    r0x1006
005E   FE00           00251         JBCLR   r0x1002,7
005F   6E00           00252         DECR    r0x1006
                      00253 ;;[ICODE] ../../libsdcc_mc32/_divschar.c:43:    iTemp25 [k32 lr39:40 so:0]{ ia0 a2p0 re0 rm0 nos0 ru0 dp0}{int fixed}[r0x1002 r0x1006 ] = - iTemp24 [k31 lr38:39 so:0]{ ia0 a2p0 re0 rm0 nos0 ru0 dp0}{int fixed}[r0x1002 r0x1006 ]
0060   7200           00254         COMR    r0x1002
0061   7200           00255         COMR    r0x1006
0062   6600           00256         INCR    r0x1002
0063   F587           00257         JBCLR   PFLAG,2
0064   6600           00258         INCR    r0x1006
                      00259 ;;[ICODE] ../../libsdcc_mc32/_divschar.c:43:    iTemp26 [k33 lr40:41 so:0]{ ia0 a2p0 re0 rm0 nos0 ru0 dp0}{unsigned-int fixed}[r0x1008 r0x1009 ] = (unsigned-int fixed)iTemp25 [k32 lr39:40 so:0]{ ia0 a2p0 re0 rm0 nos0 ru0 dp0}{int fixed}[r0x1002 r0x1006 ]
                      00260 ;;112   MOVAR   r0x1002
0065   5800           00261         MOVAR   r0x1006
                      00262 ;;1     MOVRA   r0x1009
                      00263 ;;[ICODE] ../../libsdcc_mc32/_divschar.c:43:    iTemp27 [k34 lr41:43 so:0]{ ia0 a2p0 re0 rm0 nos0 ru0 dp0}{unsigned-char fixed}[r0x1002 ] = (unsigned-char fixed)iTemp26 [k33 lr40:41 so:0]{ ia0 a2p0 re0 rm0 nos0 ru0 dp0}{unsigned-int fixed}[r0x1008 r0x1009 ]
                      00264 ;;102   MOVAR   r0x1008
                      00265 ;;[ICODE] ../../libsdcc_mc32/_divschar.c:43:    send iTemp23 [k30 lr37:43 so:0]{ ia0 a2p0 re0 rm0 nos0 ru1 dp0}{unsigned-char fixed}[r0x1007 ]{argreg = 1}
                      00266 ;;[ICODE] ../../libsdcc_mc32/_divschar.c:43:    send iTemp27 [k34 lr41:43 so:0]{ ia0 a2p0 re0 rm0 nos0 ru0 dp0}{unsigned-char fixed}[r0x1002 ]{argreg = 1}
                      00267 ;;[ICODE] ../../libsdcc_mc32/_divschar.c:43:    iTemp28 [k35 lr44:45 so:0]{ ia0 a2p0 re0 rm0 nos0 ru0 dp0}{unsigned-char fixed}[r0x1002 ] = call __divuchar [k8 lr0:0 so:0]{ ia0 a2p0 re0 rm0 nos0 ru0 dp0}{unsigned-char function ( unsigned-char fixed, unsigned-char fixed) fixed}
                      00268 ;;101   MOVAR   r0x1002
                      00269 ;;111   MOVAR   r0x1008
0066   5800           00270         MOVAR   r0x1002
0067   5600           00271         MOVRA   r0x1008
0068   5600           00272         MOVRA   r0x1002
0069   5600           00273         MOVRA   STK00
006A   5800           00274         MOVAR   r0x1007
006B   8000           00275         CALL    __divuchar
006C   5600           00276         MOVRA   r0x1002
                      00277 ;;[ICODE] ../../libsdcc_mc32/_divschar.c:43:    iTemp29 [k36 lr45:46 so:0]{ ia0 a2p0 re0 rm0 nos0 ru1 dp0}{unsigned-char fixed}[r0x1002 ] = - iTemp28 [k35 lr44:45 so:0]{ ia0 a2p0 re0 rm0 nos0 ru0 dp0}{unsigned-char fixed}[r0x1002 ]
006D   7200           00278         COMR    r0x1002
006E   6600           00279         INCR    r0x1002
                      00280 ;;[ICODE] ../../libsdcc_mc32/_divschar.c:43:    ret iTemp29 [k36 lr45:46 so:0]{ ia0 a2p0 re0 rm0 nos0 ru1 dp0}{unsigned-char fixed}[r0x1002 ]
006F   5800           00281         MOVAR   r0x1002
0070   A000           00282         GOTO    _00114_DS_
                      00283 ;;[ICODE] ../../libsdcc_mc32/_divschar.c:43:  _iffalse_1($5) :
                      00284 ;;[ICODE] ../../libsdcc_mc32/_divschar.c:45:    iTemp30 [k37 lr48:49 so:0]{ ia0 a2p0 re0 rm0 nos0 ru0 dp0}{unsigned-int fixed}[r0x1002 r0x1007 ] = (unsigned-int fixed)iTemp0 [k2 lr3:48 so:0]{ ia0 a2p0 re1 rm0 nos0 ru0 dp0}{char fixed}{ sir@ __divschar_a_1_2}[r0x1000 ]
0071                  00285 _00109_DS_
                      00286 ;       .line   45; "../../libsdcc_mc32/_divschar.c"    return _divuchar ((unsigned int)a, (unsigned int)b);
0071   5800           00287         MOVAR   r0x1000
0072   5600           00288         MOVRA   r0x1002
0073   7600           00289         CLRR    r0x1007
0074   FE00           00290         JBCLR   r0x1002,7
0075   6E00           00291         DECR    r0x1007
                      00292 ;;[ICODE] ../../libsdcc_mc32/_divschar.c:45:    iTemp31 [k38 lr49:53 so:0]{ ia0 a2p0 re0 rm0 nos0 ru1 dp0}{unsigned-char fixed}[r0x1000 ] = (unsigned-char fixed)iTemp30 [k37 lr48:49 so:0]{ ia0 a2p0 re0 rm0 nos0 ru0 dp0}{unsigned-int fixed}[r0x1002 r0x1007 ]
0076   5800           00293         MOVAR   r0x1002
0077   5600           00294         MOVRA   r0x1000
                      00295 ;;[ICODE] ../../libsdcc_mc32/_divschar.c:45:    iTemp32 [k39 lr50:51 so:0]{ ia0 a2p0 re0 rm0 nos0 ru0 dp0}{unsigned-int fixed}[r0x1002 r0x1007 ] = (unsigned-int fixed)iTemp1 [k4 lr4:50 so:0]{ ia0 a2p0 re1 rm0 nos0 ru0 dp0}{char fixed}{ sir@ __divschar_b_1_2}[r0x1001 ]
0078   5800           00296         MOVAR   r0x1001
0079   5600           00297         MOVRA   r0x1002
007A   7600           00298         CLRR    r0x1007
007B   FE00           00299         JBCLR   r0x1002,7
007C   6E00           00300         DECR    r0x1007
                      00301 ;;[ICODE] ../../libsdcc_mc32/_divschar.c:45:    iTemp33 [k40 lr51:53 so:0]{ ia0 a2p0 re0 rm0 nos0 ru0 dp0}{unsigned-char fixed}[r0x1001 ] = (unsigned-char fixed)iTemp32 [k39 lr50:51 so:0]{ ia0 a2p0 re0 rm0 nos0 ru0 dp0}{unsigned-int fixed}[r0x1002 r0x1007 ]
                      00302 ;;100   MOVAR   r0x1002
                      00303 ;;[ICODE] ../../libsdcc_mc32/_divschar.c:45:    send iTemp31 [k38 lr49:53 so:0]{ ia0 a2p0 re0 rm0 nos0 ru1 dp0}{unsigned-char fixed}[r0x1000 ]{argreg = 1}
                      00304 ;;[ICODE] ../../libsdcc_mc32/_divschar.c:45:    send iTemp33 [k40 lr51:53 so:0]{ ia0 a2p0 re0 rm0 nos0 ru0 dp0}{unsigned-char fixed}[r0x1001 ]{argreg = 1}
                      00305 ;;[ICODE] ../../libsdcc_mc32/_divschar.c:45:    iTemp34 [k41 lr54:55 so:0]{ ia0 a2p0 re0 rm0 nos0 ru1 dp0}{unsigned-char fixed}[r0x1000 ] = call __divuchar [k8 lr0:0 so:0]{ ia0 a2p0 re0 rm0 nos0 ru0 dp0}{unsigned-char function ( unsigned-char fixed, unsigned-char fixed) fixed}
                      00306 ;;99    MOVAR   r0x1001
007D   5800           00307         MOVAR   r0x1002
007E   5600           00308         MOVRA   r0x1001
007F   5600           00309         MOVRA   STK00
0080   5800           00310         MOVAR   r0x1000
0081   8000           00311         CALL    __divuchar
0082   5600           00312         MOVRA   r0x1000
                      00313 ;;[ICODE] ../../libsdcc_mc32/_divschar.c:45:    ret iTemp34 [k41 lr54:55 so:0]{ ia0 a2p0 re0 rm0 nos0 ru1 dp0}{unsigned-char fixed}[r0x1000 ]
0083   5800           00314         MOVAR   r0x1000
                      00315 ;;[ICODE] ../../libsdcc_mc32/_divschar.c:45:  _return($10) :
                      00316 ;;[ICODE] ../../libsdcc_mc32/_divschar.c:45:    eproc __divschar [k1 lr0:0 so:0]{ ia0 a2p0 re0 rm0 nos0 ru0 dp0}{char function ( char fixed, char fixed) fixed}
0084                  00317 _00114_DS_
0084   000C           00318         RETURN  
                      00319 ; exit point of __divschar
                      00320 
                      00321 
                      00322 ;       code size estimation:
                      00323 ;         133+    0 =   133 instructions (  266 byte)
                      00324 
                      00325         end
gpasm-2.0.0_beta2 (Nov  6 2017)_divschar.asm      2018-1-11  14:01:18          PAGE  2


SYMBOL TABLE
  LABEL                             VALUE

ADCHS0                            00000004
ADCHS1                            00000005
ADCHS2                            00000006
ADCHS3                            00000007
ADCKS0                            00000002
ADCKS1                            00000003
ADCR0                             000001B0
ADCR1                             000001B1
ADEOC                             00000001
ADIE                              00000006
ADIF                              00000006
ADON                              00000000
ADR0                              00000000
ADR1                              00000001
ADR10                             00000006
ADR11                             00000007
ADR2                              00000002
ADR3                              00000003
ADR4                              00000000
ADR5                              00000001
ADR6                              00000002
ADR7                              00000003
ADR8                              00000004
ADR9                              00000005
ADRH                              000001B4
ADRL                              000001B5
ANSEL                             00000193
BUZ0OE                            00000005
BUZ1OE                            00000005
C                                 00000000
CLKS                              00000002
DC                                00000001
FSR0                              00000184
FSR00                             00000000
FSR01                             00000001
FSR02                             00000002
FSR03                             00000003
FSR04                             00000004
FSR05                             00000005
FSR06                             00000006
FSR07                             00000007
FSR1                              00000185
FSR10                             00000000
FSR11                             00000001
FSR12                             00000002
FSR13                             00000003
FSR14                             00000004
FSR15                             00000005
FSR16                             00000006
FSR17                             00000007
GIE                               00000007
HFEN                              00000000
HIBYTE                            00000183
HIBYTE0                           00000000
HIBYTE1                           00000001
HIBYTE2                           00000002
HIBYTE3                           00000003
HIBYTE4                           00000004
HIBYTE5                           00000005
HIBYTE6                           00000006
HIBYTE7                           00000007
INDF0                             00000180
INDF00                            00000000
INDF01                            00000001
INDF02                            00000002
INDF03                            00000003
INDF04                            00000004
INDF05                            00000005
INDF06                            00000006
INDF07                            00000007
INDF1                             00000181
INDF10                            00000000
INDF11                            00000001
INDF12                            00000002
INDF13                            00000003
INDF14                            00000004
INDF15                            00000005
INDF16                            00000006
INDF17                            00000007
INDF2                             00000182
INDF20                            00000000
INDF21                            00000001
INDF22                            00000002
INDF23                            00000003
INDF24                            00000004
INDF25                            00000005
INDF26                            00000006
INDF27                            00000007
INDF3                             00000189
INDF30                            00000000
INDF31                            00000001
INDF32                            00000002
INDF33                            00000003
INDF34                            00000004
INDF35                            00000005
INDF36                            00000006
INDF37                            00000007
INT0IE                            00000002
INT0IF                            00000002
INT1IE                            00000003
INT1IF                            00000003
INTE                              0000018A
INTF                              0000018B
IOP0                              00000190
IOP1                              00000194
KBCR                              00000197
KBCR0                             00000000
KBCR1                             00000001
KBCR2                             00000002
KBCR3                             00000003
KBCR4                             00000004
KBCR5                             00000005
KBCR6                             00000006
KBIE                              00000004
KBIF                              00000004
LFEN                              00000001
LVDCR                             000001AF
LVDEN                             00000007
LVDF                              00000000
LVDS0                             00000004
LVDS1                             00000005
LVDS2                             00000006
MCR                               00000188
MINT00                            00000000
MINT01                            00000001
MINT10                            00000002
MINT11                            00000003
OEP0                              00000191
OEP1                              00000195
OSCCAL                            000001FB
OSCCAL0                           00000000
OSCCAL1                           00000001
OSCCAL2                           00000002
OSCCAL3                           00000003
OSCCAL4                           00000004
OSCCAL5                           00000005
OSCCAL6                           00000006
OSCCAL7                           00000007
OSCM                              000001AE
P00ANS                            00000000
P00D                              00000000
P00OE                             00000000
P00PU                             00000000
P01ANS                            00000001
P01D                              00000001
P01OE                             00000001
P01PU                             00000001
P02ANS                            00000002
P02D                              00000002
P02OE                             00000002
P02PU                             00000002
P03ANS                            00000003
P03D                              00000003
P03OE                             00000003
P03PU                             00000003
P04ANS                            00000004
P04D                              00000004
P04OE                             00000004
P04PU                             00000004
P10D                              00000000
P10OE                             00000000
P10PU                             00000000
P11D                              00000001
P11OE                             00000001
P11PU                             00000001
P12ANS                            00000005
P12D                              00000002
P12OE                             00000002
P12PU                             00000002
P13ANS                            00000006
P13D                              00000003
P13OE                             00000003
P13PU                             00000003
P14D                              00000004
P14OE                             00000004
P14PU                             00000004
P15D                              00000005
P15OE                             00000005
P15PU                             00000005
P16D                              00000006
P16OE                             00000006
P16PU                             00000006
PC0                               00000000
PC1                               00000001
PC2                               00000002
PC3                               00000003
PC4                               00000004
PC5                               00000005
PC6                               00000006
PC7                               00000007
PCL                               00000186
PD                                00000004
PFLAG                             00000187
PUP0                              00000192
PUP1                              00000196
PWM0OE                            00000006
PWM1OE                            00000006
STBH                              00000004
STBL                              00000005
STK00                             00000000
STK01                             00000000
STK02                             00000000
STK03                             00000000
STK04                             00000000
STK05                             00000000
STK06                             00000000
T0C0                              00000000
T0C1                              00000001
T0C2                              00000002
T0C3                              00000003
T0C4                              00000004
T0C5                              00000005
T0C6                              00000006
T0C7                              00000007
T0CNT                             000001A1
T0CR                              000001A0
T0DATA                            000001A3
T0DATA0                           00000000
T0DATA1                           00000001
T0DATA2                           00000002
T0DATA3                           00000003
T0DATA4                           00000004
T0DATA5                           00000005
T0DATA6                           00000006
T0DATA7                           00000007
T0IE                              00000000
T0IF                              00000000
T0LOAD                            000001A2
T0LOAD0                           00000000
T0LOAD1                           00000001
T0LOAD2                           00000002
T0LOAD3                           00000003
T0LOAD4                           00000004
T0LOAD5                           00000005
T0LOAD6                           00000006
T0LOAD7                           00000007
T0PR0                             00000000
T0PR1                             00000001
T0PR2                             00000002
T0PTS0                            00000003
T0PTS1                            00000004
T1C0                              00000000
T1C1                              00000001
T1C2                              00000002
T1C3                              00000003
T1C4                              00000004
T1C5                              00000005
T1C6                              00000006
T1C7                              00000007
T1CNT                             000001A5
T1CR                              000001A4
T1DATA                            000001A7
T1DATA0                           00000000
T1DATA1                           00000001
T1DATA2                           00000002
T1DATA3                           00000003
T1DATA4                           00000004
T1DATA5                           00000005
T1DATA6                           00000006
T1DATA7                           00000007
T1IE                              00000001
T1IF                              00000001
T1LOAD                            000001A6
T1LOAD0                           00000000
T1LOAD1                           00000001
T1LOAD2                           00000002
T1LOAD3                           00000003
T1LOAD4                           00000004
T1LOAD5                           00000005
T1LOAD6                           00000006
T1LOAD7                           00000007
T1PR0                             00000000
T1PR1                             00000001
T1PR2                             00000002
T1PTS0                            00000003
T1PTS1                            00000004
TC0EN                             00000007
TC1EN                             00000007
TO                                00000005
VRS0                              00000000
VRS1                              00000001
VRS2                              00000002
Z                                 00000002
_00106_DS_                        00000031
_00109_DS_                        00000071
_00112_DS_                        0000004F
_00114_DS_                        00000084
_CONFIG0                          00008000
_CONFIG1                          00008001
__32P21                           00000001
__divschar                        00000000
__divuchar                        00000000
r0x1000                           00000000
r0x1001                           00000001
r0x1002                           00000002
r0x1003                           00000003
r0x1004                           00000004
r0x1005                           00000005
r0x1006                           00000006
r0x1007                           00000007
r0x1008                           00000008

Errors   :     0
Warnings :     0 reported,     0 suppressed
Messages :     0 reported,     0 suppressed

