gpasm-2.0.0_beta2 (Nov  6 2017)_modulong.asm      2018-1-11  14:01:29          PAGE  1


LOC  OBJECT CODE     LINE SOURCE TEXT
  VALUE

                      00001 ;--------------------------------------------------------
                      00002 ; File Created by SN-SDCC : SinoMCU ANSI-C Compiler
                      00003 ; Version 1.1.0 (Dec 19 2017) (MINGW32)
                      00004 ; This file was generated Thu Jan 11 14:01:29 2018
                      00005 ;--------------------------------------------------------
                      00006 ; MC32 port for the RISC core
                      00007 ;--------------------------------------------------------
                      00008 ;       .file   "../../libsdcc_mc32/_modulong.c"
                      00009         list    p=3221
                      00010         radix dec
                      00011         include "3221.inc"
                      00001                 LIST
                      00002 ;mc32p7010.inc    Standard Header File, Version 1.00 by Sinomcu
                      00435                 LIST
                      00012 ;--------------------------------------------------------
                      00013 ; external declarations
                      00014 ;--------------------------------------------------------
                      00015 
                      00016         extern STK06
                      00017         extern STK05
                      00018         extern STK04
                      00019         extern STK03
                      00020         extern STK02
                      00021         extern STK01
                      00022         extern STK00
                      00023 ;--------------------------------------------------------
                      00024 ; global declarations
                      00025 ;--------------------------------------------------------
                      00026         global  __modulong
                      00027 
                      00028 ;--------------------------------------------------------
                      00029 ; global definitions
                      00030 ;--------------------------------------------------------
                      00031 ;--------------------------------------------------------
                      00032 ; absolute symbol definitions
                      00033 ;--------------------------------------------------------
                      00034 ;--------------------------------------------------------
                      00035 ; compiler-defined variables
                      00036 ;--------------------------------------------------------
                      00037 UDL__modulong_0 udata
0000                  00038 r0x1003 res     1
0000                  00039 r0x1002 res     1
0001                  00040 r0x1001 res     1
0001                  00041 r0x1000 res     1
0002                  00042 r0x1007 res     1
0002                  00043 r0x1006 res     1
0003                  00044 r0x1005 res     1
0003                  00045 r0x1004 res     1
0004                  00046 r0x1008 res     1
                      00047 ;--------------------------------------------------------
                      00048 ; initialized data
                      00049 ;--------------------------------------------------------
                      00050 
                      00051 ;@Allocation info for local variables in function '_modulong'
                      00052 ;@_modulong b                         Allocated to registers r0x1007 r0x1006 r0x1005 r0x1004 ;size:4
                      00053 ;@_modulong a                         Allocated to registers r0x1003 r0x1002 r0x1001 r0x1000 ;size:4
                      00054 ;@_modulong count                     Allocated to registers r0x1008 ;size:1
                      00055 ;@end Allocation info for local variables in function '_modulong';
                      00056 
                      00057 ;--------------------------------------------------------
                      00058 ; overlayable items in internal ram 
                      00059 ;--------------------------------------------------------
                      00060 ;       udata_ovr
                      00061 ;--------------------------------------------------------
                      00062 ; code
                      00063 ;--------------------------------------------------------
                      00064 code__modulong  code
                      00065 ;***
                      00066 ;  pBlock Stats: dbName = C
                      00067 ;***
                      00068 ;entry:  __modulong     ;Function start
                      00069 ; 2 exit points
                      00070 ;has an exit
                      00071 ;16 compiler assigned registers:
                      00072 ;   r0x1000
                      00073 ;   STK00
                      00074 ;   r0x1001
                      00075 ;   STK01
                      00076 ;   r0x1002
                      00077 ;   STK02
                      00078 ;   r0x1003
                      00079 ;   STK03
                      00080 ;   r0x1004
                      00081 ;   STK04
                      00082 ;   r0x1005
                      00083 ;   STK05
                      00084 ;   r0x1006
                      00085 ;   STK06
                      00086 ;   r0x1007
                      00087 ;   r0x1008
                      00088 ;; Starting pCode block
                      00089 ;;[ICODE] ../../libsdcc_mc32/_modulong.c:30:  _entry($12) :
                      00090 ;;[ICODE] ../../libsdcc_mc32/_modulong.c:30:    proc __modulong [k1 lr0:0 so:0]{ ia0 a2p0 re0 rm0 nos0 ru0 dp0}{unsigned-long-int function ( unsigned-long-int fixed, unsigned-long-int fixed) fixed}
0000                  00091 __modulong      ;Function start
                      00092 ; 2 exit points
                      00093 ;;[ICODE] ../../libsdcc_mc32/_modulong.c:30: iTemp0 [k2 lr3:32 so:0]{ ia0 a2p0 re1 rm0 nos0 ru0 dp0}{unsigned-long-int fixed}{ sir@ __modulong_a_1_1}[r0x1000 r0x1001 r0x1002 r0x1003 ] = recv __modulong [k1 lr0:0 so:0]{ ia0 a2p0 re0 rm0 nos0 ru0 dp0}{unsigned-long-int function ( unsigned-long-int fixed, unsigned-long-int fixed) fixed}
                      00094 ;       .line   30; "../../libsdcc_mc32/_modulong.c"    _modulong (unsigned long a, unsigned long b)
0000   5600           00095         MOVRA   r0x1000
0001   5800           00096         MOVAR   STK00
0002   5600           00097         MOVRA   r0x1001
0003   5800           00098         MOVAR   STK01
0004   5600           00099         MOVRA   r0x1002
0005   5800           00100         MOVAR   STK02
0006   5600           00101         MOVRA   r0x1003
                      00102 ;;[ICODE] ../../libsdcc_mc32/_modulong.c:30: iTemp1 [k4 lr4:30 so:0]{ ia0 a2p0 re1 rm0 nos0 ru0 dp0}{unsigned-long-int fixed}{ sir@ __modulong_b_1_1}[r0x1004 r0x1005 r0x1006 r0x1007 ] = recv __modulong [k1 lr0:0 so:0]{ ia0 a2p0 re0 rm0 nos0 ru0 dp0}{unsigned-long-int function ( unsigned-long-int fixed, unsigned-long-int fixed) fixed}
0007   5800           00103         MOVAR   STK03
0008   5600           00104         MOVRA   r0x1004
0009   5800           00105         MOVAR   STK04
000A   5600           00106         MOVRA   r0x1005
000B   5800           00107         MOVAR   STK05
000C   5600           00108         MOVRA   r0x1006
000D   5800           00109         MOVAR   STK06
000E   5600           00110         MOVRA   r0x1007
                      00111 ;;[ICODE] ../../libsdcc_mc32/_modulong.c:35:    if iTemp1 [k4 lr4:30 so:0]{ ia0 a2p0 re1 rm0 nos0 ru0 dp0}{unsigned-long-int fixed}{ sir@ __modulong_b_1_1}[r0x1004 r0x1005 r0x1006 r0x1007 ] != 0 goto preHeaderLbl0($15)
                      00112 ;       .line   35; "../../libsdcc_mc32/_modulong.c"    if (!b) return (unsigned long)-1;
000F   5800           00113         MOVAR   r0x1007
0010   5C00           00114         ORAR    r0x1006
0011   5C00           00115         ORAR    r0x1005
0012   5C00           00116         ORAR    r0x1004
0013   E587           00117         JBSET   PFLAG,2
0014   A000           00118         GOTO    _00119_DS_
                      00119 ;;[ICODE] ../../libsdcc_mc32/_modulong.c:35:    ret 0xffffffff {unsigned-long-int literal}
0015   3CFF           00120         MOVAI   0xff
0016   5600           00121         MOVRA   STK02
0017   3CFF           00122         MOVAI   0xff
0018   5600           00123         MOVRA   STK01
0019   3CFF           00124         MOVAI   0xff
001A   5600           00125         MOVRA   STK00
001B   3CFF           00126         MOVAI   0xff
001C   A000           00127         GOTO    _00115_DS_
                      00128 ;;[ICODE] ../../libsdcc_mc32/_modulong.c:39:  preHeaderLbl0($15) :
                      00129 ;;[ICODE] ../../libsdcc_mc32/_modulong.c:39:    iTemp5 [k10 lr8:18 so:0]{ ia0 a2p0 re0 rm0 nos0 ru0 dp0}{unsigned-char fixed}{ sir@ __modulong_count_1_2}[r0x1008 ] := 0x1 {const-unsigned-char literal}
001D                  00130 _00119_DS_
                      00131 ;       .line   39; "../../libsdcc_mc32/_modulong.c"    while (!(b & (1UL << (8*sizeof(unsigned long)-1)))) {
001D   3C01           00132         MOVAI   0x01
001E   5600           00133         MOVRA   r0x1008
                      00134 ;;[ICODE] ../../libsdcc_mc32/_modulong.c:39:  _whilecontinue_0($3) :
                      00135 ;;[ICODE] ../../libsdcc_mc32/_modulong.c:39:    iTemp3 [k8 lr11:12 so:0]{ ia0 a2p0 re0 rm0 nos0 ru0 dp0}{unsigned-long-int register} = iTemp1 [k4 lr4:30 so:0]{ ia0 a2p0 re1 rm0 nos0 ru0 dp0}{unsigned-long-int fixed}{ sir@ __modulong_b_1_1}[r0x1004 r0x1005 r0x1006 r0x1007 ] & 0x80000000 {unsigned-long-int literal}
001F                  00136 _00107_DS_
001F   FE00           00137         JBCLR   r0x1004,7
0020   A000           00138         GOTO    _00112_DS_
                      00139 ;;[ICODE] ../../libsdcc_mc32/_modulong.c:39:    if iTemp3 [k8 lr11:12 so:0]{ ia0 a2p0 re0 rm0 nos0 ru0 dp0}{unsigned-long-int register} != 0 goto preHeaderLbl1($18)
                      00140 ;;[ICODE] ../../libsdcc_mc32/_modulong.c:40:    iTemp1 [k4 lr4:30 so:0]{ ia0 a2p0 re1 rm0 nos0 ru0 dp0}{unsigned-long-int fixed}{ sir@ __modulong_b_1_1}[r0x1004 r0x1005 r0x1006 r0x1007 ] = iTemp1 [k4 lr4:30 so:0]{ ia0 a2p0 re1 rm0 nos0 ru0 dp0}{unsigned-long-int fixed}{ sir@ __modulong_b_1_1}[r0x1004 r0x1005 r0x1006 r0x1007 ] << 0x1 {const-unsigned-char literal}
                      00141 ;       .line   40; "../../libsdcc_mc32/_modulong.c"    b <<= 1;
0021   D187           00142         BCLR    PFLAG,0
0022   5200           00143         RLR     r0x1007
0023   5200           00144         RLR     r0x1006
0024   5200           00145         RLR     r0x1005
0025   5200           00146         RLR     r0x1004
                      00147 ;;[ICODE] ../../libsdcc_mc32/_modulong.c:41:    iTemp5 [k10 lr8:18 so:0]{ ia0 a2p0 re0 rm0 nos0 ru0 dp0}{unsigned-char fixed}{ sir@ __modulong_count_1_2}[r0x1008 ] = iTemp5 [k10 lr8:18 so:0]{ ia0 a2p0 re0 rm0 nos0 ru0 dp0}{unsigned-char fixed}{ sir@ __modulong_count_1_2}[r0x1008 ] + 0x1 {const-unsigned-char literal}
                      00148 ;       .line   41; "../../libsdcc_mc32/_modulong.c"    ++count;
0026   6600           00149         INCR    r0x1008
                      00150 ;;[ICODE] ../../libsdcc_mc32/_modulong.c:41:     goto _whilecontinue_0($3)
0027   A000           00151         GOTO    _00107_DS_
                      00152 ;;[ICODE] ../../libsdcc_mc32/_modulong.c:45:  preHeaderLbl1($18) :
                      00153 ;;[ICODE] ../../libsdcc_mc32/_modulong.c:45:    iTemp9 [k14 lr18:30 so:0]{ ia0 a2p0 re0 rm0 nos0 ru0 dp0}{unsigned-char fixed}{ sir@ __modulong_count_1_2}[r0x1008 ] := iTemp5 [k10 lr8:18 so:0]{ ia0 a2p0 re0 rm0 nos0 ru0 dp0}{unsigned-char fixed}{ sir@ __modulong_count_1_2}[r0x1008 ]
                      00154 ;;[ICODE] ../../libsdcc_mc32/_modulong.c:45:  _whilecontinue_1($8) :
                      00155 ;;[ICODE] ../../libsdcc_mc32/_modulong.c:45:    if iTemp9 [k14 lr18:30 so:0]{ ia0 a2p0 re0 rm0 nos0 ru0 dp0}{unsigned-char fixed}{ sir@ __modulong_count_1_2}[r0x1008 ] == 0 goto _whilebreak_1($10)
0028                  00156 _00112_DS_
                      00157 ;       .line   45; "../../libsdcc_mc32/_modulong.c"    while (count) {
0028   3C00           00158         MOVAI   0x00
0029   5C00           00159         ORAR    r0x1008
002A   F587           00160         JBCLR   PFLAG,2
002B   A000           00161         GOTO    _00114_DS_
                      00162 ;;[ICODE] ../../libsdcc_mc32/_modulong.c:46:    iTemp6 [k11 lr22:23 so:0]{ ia0 a2p0 re0 rm0 nos0 ru0 dp0}{char fixed} = iTemp0 [k2 lr3:32 so:0]{ ia0 a2p0 re1 rm0 nos0 ru0 dp0}{unsigned-long-int fixed}{ sir@ __modulong_a_1_1}[r0x1000 r0x1001 r0x1002 r0x1003 ] < iTemp1 [k4 lr4:30 so:0]{ ia0 a2p0 re1 rm0 nos0 ru0 dp0}{unsigned-long-int fixed}{ sir@ __modulong_b_1_1}[r0x1004 r0x1005 r0x1006 r0x1007 ]
                      00163 ;       .line   46; "../../libsdcc_mc32/_modulong.c"    if (a >= b) {
002C   5800           00164         MOVAR   r0x1004
002D   4800           00165         RSUBAR  r0x1000
002E   E587           00166         JBSET   PFLAG,2
002F   A000           00167         GOTO    _00131_DS_
0030   5800           00168         MOVAR   r0x1005
0031   4800           00169         RSUBAR  r0x1001
0032   E587           00170         JBSET   PFLAG,2
0033   A000           00171         GOTO    _00131_DS_
0034   5800           00172         MOVAR   r0x1006
0035   4800           00173         RSUBAR  r0x1002
0036   E587           00174         JBSET   PFLAG,2
0037   A000           00175         GOTO    _00131_DS_
0038   5800           00176         MOVAR   r0x1007
0039   4800           00177         RSUBAR  r0x1003
003A                  00178 _00131_DS_
003A   E187           00179         JBSET   PFLAG,0
003B   A000           00180         GOTO    _00111_DS_
                      00181 ;;genSkipc:3195: created from rifx:00DD608C
                      00182 ;;[ICODE] ../../libsdcc_mc32/_modulong.c:46:    if iTemp6 [k11 lr22:23 so:0]{ ia0 a2p0 re0 rm0 nos0 ru0 dp0}{char fixed} != 0 goto _iffalse_1($7)
                      00183 ;;[ICODE] ../../libsdcc_mc32/_modulong.c:47:    iTemp0 [k2 lr3:32 so:0]{ ia0 a2p0 re1 rm0 nos0 ru0 dp0}{unsigned-long-int fixed}{ sir@ __modulong_a_1_1}[r0x1000 r0x1001 r0x1002 r0x1003 ] = iTemp0 [k2 lr3:32 so:0]{ ia0 a2p0 re1 rm0 nos0 ru0 dp0}{unsigned-long-int fixed}{ sir@ __modulong_a_1_1}[r0x1000 r0x1001 r0x1002 r0x1003 ] - iTemp1 [k4 lr4:30 so:0]{ ia0 a2p0 re1 rm0 nos0 ru0 dp0}{unsigned-long-int fixed}{ sir@ __modulong_b_1_1}[r0x1004 r0x1005 r0x1006 r0x1007 ]
                      00184 ;       .line   47; "../../libsdcc_mc32/_modulong.c"    a -= b;
003C   5800           00185         MOVAR   r0x1007
003D   4A00           00186         RSUBRA  r0x1003
003E   5800           00187         MOVAR   r0x1006
003F   E187           00188         JBSET   PFLAG,0
0040   6000           00189         JZAR    r0x1006
0041   4A00           00190         RSUBRA  r0x1002
0042   5800           00191         MOVAR   r0x1005
0043   E187           00192         JBSET   PFLAG,0
0044   6000           00193         JZAR    r0x1005
0045   4A00           00194         RSUBRA  r0x1001
0046   5800           00195         MOVAR   r0x1004
0047   E187           00196         JBSET   PFLAG,0
0048   6000           00197         JZAR    r0x1004
0049   4A00           00198         RSUBRA  r0x1000
                      00199 ;;[ICODE] ../../libsdcc_mc32/_modulong.c:47:  _iffalse_1($7) :
                      00200 ;;[ICODE] ../../libsdcc_mc32/_modulong.c:49:    iTemp1 [k4 lr4:30 so:0]{ ia0 a2p0 re1 rm0 nos0 ru0 dp0}{unsigned-long-int fixed}{ sir@ __modulong_b_1_1}[r0x1004 r0x1005 r0x1006 r0x1007 ] = iTemp1 [k4 lr4:30 so:0]{ ia0 a2p0 re1 rm0 nos0 ru0 dp0}{unsigned-long-int fixed}{ sir@ __modulong_b_1_1}[r0x1004 r0x1005 r0x1006 r0x1007 ] >> 0x1 {const-unsigned-char literal}
                      00201 ;;shiftRight_Left2ResultLit:5216: shCount=1, size=4, sign=0, same=1, offr=0
004A                  00202 _00111_DS_
                      00203 ;       .line   49; "../../libsdcc_mc32/_modulong.c"    b >>= 1;
004A   D187           00204         BCLR    PFLAG,0
004B   4E00           00205         RRR     r0x1004
004C   4E00           00206         RRR     r0x1005
004D   4E00           00207         RRR     r0x1006
004E   4E00           00208         RRR     r0x1007
                      00209 ;;[ICODE] ../../libsdcc_mc32/_modulong.c:50:    iTemp9 [k14 lr18:30 so:0]{ ia0 a2p0 re0 rm0 nos0 ru0 dp0}{unsigned-char fixed}{ sir@ __modulong_count_1_2}[r0x1008 ] = iTemp9 [k14 lr18:30 so:0]{ ia0 a2p0 re0 rm0 nos0 ru0 dp0}{unsigned-char fixed}{ sir@ __modulong_count_1_2}[r0x1008 ] - 0x1 {const-unsigned-char literal}
                      00210 ;       .line   50; "../../libsdcc_mc32/_modulong.c"    --count;
004F   6E00           00211         DECR    r0x1008
                      00212 ;;[ICODE] ../../libsdcc_mc32/_modulong.c:50:     goto _whilecontinue_1($8)
0050   A000           00213         GOTO    _00112_DS_
                      00214 ;;[ICODE] ../../libsdcc_mc32/_modulong.c:50:  _whilebreak_1($10) :
                      00215 ;;[ICODE] ../../libsdcc_mc32/_modulong.c:53:    ret iTemp0 [k2 lr3:32 so:0]{ ia0 a2p0 re1 rm0 nos0 ru0 dp0}{unsigned-long-int fixed}{ sir@ __modulong_a_1_1}[r0x1000 r0x1001 r0x1002 r0x1003 ]
0051                  00216 _00114_DS_
                      00217 ;       .line   53; "../../libsdcc_mc32/_modulong.c"    return a;
0051   5800           00218         MOVAR   r0x1003
0052   5600           00219         MOVRA   STK02
0053   5800           00220         MOVAR   r0x1002
0054   5600           00221         MOVRA   STK01
0055   5800           00222         MOVAR   r0x1001
0056   5600           00223         MOVRA   STK00
0057   5800           00224         MOVAR   r0x1000
                      00225 ;;[ICODE] ../../libsdcc_mc32/_modulong.c:53:  _return($11) :
                      00226 ;;[ICODE] ../../libsdcc_mc32/_modulong.c:53:    eproc __modulong [k1 lr0:0 so:0]{ ia0 a2p0 re0 rm0 nos0 ru0 dp0}{unsigned-long-int function ( unsigned-long-int fixed, unsigned-long-int fixed) fixed}
0058                  00227 _00115_DS_
0058   000C           00228         RETURN  
                      00229 ; exit point of __modulong
                      00230 
                      00231 
                      00232 ;       code size estimation:
                      00233 ;          89+    0 =    89 instructions (  178 byte)
                      00234 
                      00235         end
gpasm-2.0.0_beta2 (Nov  6 2017)_modulong.asm      2018-1-11  14:01:29          PAGE  2


SYMBOL TABLE
  LABEL                             VALUE

ADCHS0                            00000004
ADCHS1                            00000005
ADCHS2                            00000006
ADCHS3                            00000007
ADCKS0                            00000002
ADCKS1                            00000003
ADCR0                             000001B0
ADCR1                             000001B1
ADEOC                             00000001
ADIE                              00000006
ADIF                              00000006
ADON                              00000000
ADR0                              00000000
ADR1                              00000001
ADR10                             00000006
ADR11                             00000007
ADR2                              00000002
ADR3                              00000003
ADR4                              00000000
ADR5                              00000001
ADR6                              00000002
ADR7                              00000003
ADR8                              00000004
ADR9                              00000005
ADRH                              000001B4
ADRL                              000001B5
ANSEL                             00000193
BUZ0OE                            00000005
BUZ1OE                            00000005
C                                 00000000
CLKS                              00000002
DC                                00000001
FSR0                              00000184
FSR00                             00000000
FSR01                             00000001
FSR02                             00000002
FSR03                             00000003
FSR04                             00000004
FSR05                             00000005
FSR06                             00000006
FSR07                             00000007
FSR1                              00000185
FSR10                             00000000
FSR11                             00000001
FSR12                             00000002
FSR13                             00000003
FSR14                             00000004
FSR15                             00000005
FSR16                             00000006
FSR17                             00000007
GIE                               00000007
HFEN                              00000000
HIBYTE                            00000183
HIBYTE0                           00000000
HIBYTE1                           00000001
HIBYTE2                           00000002
HIBYTE3                           00000003
HIBYTE4                           00000004
HIBYTE5                           00000005
HIBYTE6                           00000006
HIBYTE7                           00000007
INDF0                             00000180
INDF00                            00000000
INDF01                            00000001
INDF02                            00000002
INDF03                            00000003
INDF04                            00000004
INDF05                            00000005
INDF06                            00000006
INDF07                            00000007
INDF1                             00000181
INDF10                            00000000
INDF11                            00000001
INDF12                            00000002
INDF13                            00000003
INDF14                            00000004
INDF15                            00000005
INDF16                            00000006
INDF17                            00000007
INDF2                             00000182
INDF20                            00000000
INDF21                            00000001
INDF22                            00000002
INDF23                            00000003
INDF24                            00000004
INDF25                            00000005
INDF26                            00000006
INDF27                            00000007
INDF3                             00000189
INDF30                            00000000
INDF31                            00000001
INDF32                            00000002
INDF33                            00000003
INDF34                            00000004
INDF35                            00000005
INDF36                            00000006
INDF37                            00000007
INT0IE                            00000002
INT0IF                            00000002
INT1IE                            00000003
INT1IF                            00000003
INTE                              0000018A
INTF                              0000018B
IOP0                              00000190
IOP1                              00000194
KBCR                              00000197
KBCR0                             00000000
KBCR1                             00000001
KBCR2                             00000002
KBCR3                             00000003
KBCR4                             00000004
KBCR5                             00000005
KBCR6                             00000006
KBIE                              00000004
KBIF                              00000004
LFEN                              00000001
LVDCR                             000001AF
LVDEN                             00000007
LVDF                              00000000
LVDS0                             00000004
LVDS1                             00000005
LVDS2                             00000006
MCR                               00000188
MINT00                            00000000
MINT01                            00000001
MINT10                            00000002
MINT11                            00000003
OEP0                              00000191
OEP1                              00000195
OSCCAL                            000001FB
OSCCAL0                           00000000
OSCCAL1                           00000001
OSCCAL2                           00000002
OSCCAL3                           00000003
OSCCAL4                           00000004
OSCCAL5                           00000005
OSCCAL6                           00000006
OSCCAL7                           00000007
OSCM                              000001AE
P00ANS                            00000000
P00D                              00000000
P00OE                             00000000
P00PU                             00000000
P01ANS                            00000001
P01D                              00000001
P01OE                             00000001
P01PU                             00000001
P02ANS                            00000002
P02D                              00000002
P02OE                             00000002
P02PU                             00000002
P03ANS                            00000003
P03D                              00000003
P03OE                             00000003
P03PU                             00000003
P04ANS                            00000004
P04D                              00000004
P04OE                             00000004
P04PU                             00000004
P10D                              00000000
P10OE                             00000000
P10PU                             00000000
P11D                              00000001
P11OE                             00000001
P11PU                             00000001
P12ANS                            00000005
P12D                              00000002
P12OE                             00000002
P12PU                             00000002
P13ANS                            00000006
P13D                              00000003
P13OE                             00000003
P13PU                             00000003
P14D                              00000004
P14OE                             00000004
P14PU                             00000004
P15D                              00000005
P15OE                             00000005
P15PU                             00000005
P16D                              00000006
P16OE                             00000006
P16PU                             00000006
PC0                               00000000
PC1                               00000001
PC2                               00000002
PC3                               00000003
PC4                               00000004
PC5                               00000005
PC6                               00000006
PC7                               00000007
PCL                               00000186
PD                                00000004
PFLAG                             00000187
PUP0                              00000192
PUP1                              00000196
PWM0OE                            00000006
PWM1OE                            00000006
STBH                              00000004
STBL                              00000005
STK00                             00000000
STK01                             00000000
STK02                             00000000
STK03                             00000000
STK04                             00000000
STK05                             00000000
STK06                             00000000
T0C0                              00000000
T0C1                              00000001
T0C2                              00000002
T0C3                              00000003
T0C4                              00000004
T0C5                              00000005
T0C6                              00000006
T0C7                              00000007
T0CNT                             000001A1
T0CR                              000001A0
T0DATA                            000001A3
T0DATA0                           00000000
T0DATA1                           00000001
T0DATA2                           00000002
T0DATA3                           00000003
T0DATA4                           00000004
T0DATA5                           00000005
T0DATA6                           00000006
T0DATA7                           00000007
T0IE                              00000000
T0IF                              00000000
T0LOAD                            000001A2
T0LOAD0                           00000000
T0LOAD1                           00000001
T0LOAD2                           00000002
T0LOAD3                           00000003
T0LOAD4                           00000004
T0LOAD5                           00000005
T0LOAD6                           00000006
T0LOAD7                           00000007
T0PR0                             00000000
T0PR1                             00000001
T0PR2                             00000002
T0PTS0                            00000003
T0PTS1                            00000004
T1C0                              00000000
T1C1                              00000001
T1C2                              00000002
T1C3                              00000003
T1C4                              00000004
T1C5                              00000005
T1C6                              00000006
T1C7                              00000007
T1CNT                             000001A5
T1CR                              000001A4
T1DATA                            000001A7
T1DATA0                           00000000
T1DATA1                           00000001
T1DATA2                           00000002
T1DATA3                           00000003
T1DATA4                           00000004
T1DATA5                           00000005
T1DATA6                           00000006
T1DATA7                           00000007
T1IE                              00000001
T1IF                              00000001
T1LOAD                            000001A6
T1LOAD0                           00000000
T1LOAD1                           00000001
T1LOAD2                           00000002
T1LOAD3                           00000003
T1LOAD4                           00000004
T1LOAD5                           00000005
T1LOAD6                           00000006
T1LOAD7                           00000007
T1PR0                             00000000
T1PR1                             00000001
T1PR2                             00000002
T1PTS0                            00000003
T1PTS1                            00000004
TC0EN                             00000007
TC1EN                             00000007
TO                                00000005
VRS0                              00000000
VRS1                              00000001
VRS2                              00000002
Z                                 00000002
_00107_DS_                        0000001F
_00111_DS_                        0000004A
_00112_DS_                        00000028
_00114_DS_                        00000051
_00115_DS_                        00000058
_00119_DS_                        0000001D
_00131_DS_                        0000003A
_CONFIG0                          00008000
_CONFIG1                          00008001
__32P21                           00000001
__modulong                        00000000
r0x1000                           00000003
r0x1001                           00000002
r0x1002                           00000001
r0x1003                           00000000
r0x1004                           00000007
r0x1005                           00000006
r0x1006                           00000005
r0x1007                           00000004
r0x1008                           00000008

Errors   :     0
Warnings :     0 reported,     0 suppressed
Messages :     0 reported,     0 suppressed

