gpasm-2.0.0_beta2 (Nov  6 2017)_modsint.asm       2018-1-11  14:01:28          PAGE  1


LOC  OBJECT CODE     LINE SOURCE TEXT
  VALUE

                      00001 ;--------------------------------------------------------
                      00002 ; File Created by SN-SDCC : SinoMCU ANSI-C Compiler
                      00003 ; Version 1.1.0 (Dec 19 2017) (MINGW32)
                      00004 ; This file was generated Thu Jan 11 14:01:28 2018
                      00005 ;--------------------------------------------------------
                      00006 ; MC32 port for the RISC core
                      00007 ;--------------------------------------------------------
                      00008 ;       .file   "../../libsdcc_mc32/_modsint.c"
                      00009         list    p=3221
                      00010         radix dec
                      00011         include "3221.inc"
                      00001                 LIST
                      00002 ;mc32p7010.inc    Standard Header File, Version 1.00 by Sinomcu
                      00435                 LIST
                      00012 ;--------------------------------------------------------
                      00013 ; external declarations
                      00014 ;--------------------------------------------------------
                      00015         extern  __moduint
                      00016 
                      00017         extern STK06
                      00018         extern STK05
                      00019         extern STK04
                      00020         extern STK03
                      00021         extern STK02
                      00022         extern STK01
                      00023         extern STK00
                      00024 ;--------------------------------------------------------
                      00025 ; global declarations
                      00026 ;--------------------------------------------------------
                      00027         global  __modsint
                      00028 
                      00029 ;--------------------------------------------------------
                      00030 ; global definitions
                      00031 ;--------------------------------------------------------
                      00032 ;--------------------------------------------------------
                      00033 ; absolute symbol definitions
                      00034 ;--------------------------------------------------------
                      00035 ;--------------------------------------------------------
                      00036 ; compiler-defined variables
                      00037 ;--------------------------------------------------------
                      00038 UDL__modsint_0  udata
0000                  00039 r0x1001 res     1
0000                  00040 r0x1000 res     1
0001                  00041 r0x1003 res     1
0001                  00042 r0x1002 res     1
0002                  00043 r0x1004 res     1
0002                  00044 r0x1005 res     1
0003                  00045 r0x1006 res     1
0003                  00046 r0x1007 res     1
0004                  00047 r0x1008 res     1
0004                  00048 r0x1009 res     1
                      00049 ;--------------------------------------------------------
                      00050 ; initialized data
                      00051 ;--------------------------------------------------------
                      00052 
                      00053 ;@Allocation info for local variables in function '_modsint'
                      00054 ;@_modsint _moduint                  Allocated to registers ;size:2
                      00055 ;@_modsint b                         Allocated to registers r0x1003 r0x1002 ;size:2
                      00056 ;@_modsint a                         Allocated to registers r0x1001 r0x1000 ;size:2
                      00057 ;@end Allocation info for local variables in function '_modsint';
                      00058 
                      00059 ;--------------------------------------------------------
                      00060 ; overlayable items in internal ram 
                      00061 ;--------------------------------------------------------
                      00062 ;       udata_ovr
                      00063 ;--------------------------------------------------------
                      00064 ; code
                      00065 ;--------------------------------------------------------
                      00066 code__modsint   code
                      00067 ;***
                      00068 ;  pBlock Stats: dbName = C
                      00069 ;***
                      00070 ;entry:  __modsint      ;Function start
                      00071 ; 2 exit points
                      00072 ;has an exit
                      00073 ;functions called:
                      00074 ;   __moduint
                      00075 ;   __moduint
                      00076 ;   __moduint
                      00077 ;   __moduint
                      00078 ;   __moduint
                      00079 ;   __moduint
                      00080 ;   __moduint
                      00081 ;   __moduint
                      00082 ;13 compiler assigned registers:
                      00083 ;   r0x1000
                      00084 ;   STK00
                      00085 ;   r0x1001
                      00086 ;   STK01
                      00087 ;   r0x1002
                      00088 ;   STK02
                      00089 ;   r0x1003
                      00090 ;   r0x1004
                      00091 ;   r0x1005
                      00092 ;   r0x1006
                      00093 ;   r0x1007
                      00094 ;   r0x1008
                      00095 ;   r0x1009
                      00096 ;; Starting pCode block
                      00097 ;;[ICODE] ../../libsdcc_mc32/_modsint.c:32:  _entry($11) :
                      00098 ;;[ICODE] ../../libsdcc_mc32/_modsint.c:32:     proc __modsint [k1 lr0:0 so:0]{ ia0 a2p0 re0 rm0 nos0 ru0 dp0}{int function ( int fixed, int fixed) fixed}
0000                  00099 __modsint       ;Function start
                      00100 ; 2 exit points
                      00101 ;;[ICODE] ../../libsdcc_mc32/_modsint.c:32: iTemp0 [k2 lr3:36 so:0]{ ia0 a2p0 re1 rm0 nos0 ru0 dp0}{int fixed}{ sir@ __modsint_a_1_2}[r0x1000 r0x1001 ] = recv __modsint [k1 lr0:0 so:0]{ ia0 a2p0 re0 rm0 nos0 ru0 dp0}{int function ( int fixed, int fixed) fixed}
                      00102 ;       .line   32; "../../libsdcc_mc32/_modsint.c"     _modsint (int a, int b)
0000   5600           00103         MOVRA   r0x1000
0001   5800           00104         MOVAR   STK00
0002   5600           00105         MOVRA   r0x1001
                      00106 ;;[ICODE] ../../libsdcc_mc32/_modsint.c:32: iTemp1 [k4 lr4:37 so:0]{ ia0 a2p0 re1 rm0 nos0 ru0 dp0}{int fixed}{ sir@ __modsint_b_1_2}[r0x1002 r0x1003 ] = recv __modsint [k1 lr0:0 so:0]{ ia0 a2p0 re0 rm0 nos0 ru0 dp0}{int function ( int fixed, int fixed) fixed}
0003   5800           00107         MOVAR   STK01
0004   5600           00108         MOVRA   r0x1002
0005   5800           00109         MOVAR   STK02
0006   5600           00110         MOVRA   r0x1003
                      00111 ;;[ICODE] ../../libsdcc_mc32/_modsint.c:34:     iTemp2 [k6 lr5:6 so:0]{ ia0 a2p0 re0 rm0 nos0 ru0 dp0}{char fixed} = iTemp0 [k2 lr3:36 so:0]{ ia0 a2p0 re1 rm0 nos0 ru0 dp0}{int fixed}{ sir@ __modsint_a_1_2}[r0x1000 r0x1001 ] < 0x0 {int literal}
                      00112 ;;signed compare: left < lit(0x0=0), size=2, mask=ffff
                      00113 ;       .line   34; "../../libsdcc_mc32/_modsint.c"     if (a < 0) {
0007   C187           00114         BSET    PFLAG,0
0008   EE00           00115         JBSET   r0x1000,7
0009   D187           00116         BCLR    PFLAG,0
000A   E187           00117         JBSET   PFLAG,0
000B   A000           00118         GOTO    _00112_DS_
                      00119 ;;genSkipc:3195: created from rifx:00DD608C
                      00120 ;;[ICODE] ../../libsdcc_mc32/_modsint.c:34:     if iTemp2 [k6 lr5:6 so:0]{ ia0 a2p0 re0 rm0 nos0 ru0 dp0}{char fixed} == 0 goto _iffalse_2($8)
                      00121 ;;[ICODE] ../../libsdcc_mc32/_modsint.c:35:     iTemp3 [k7 lr7:8 so:0]{ ia0 a2p0 re0 rm0 nos0 ru0 dp0}{char fixed} = iTemp1 [k4 lr4:37 so:0]{ ia0 a2p0 re1 rm0 nos0 ru0 dp0}{int fixed}{ sir@ __modsint_b_1_2}[r0x1002 r0x1003 ] < 0x0 {int literal}
                      00122 ;;signed compare: left < lit(0x0=0), size=2, mask=ffff
                      00123 ;       .line   35; "../../libsdcc_mc32/_modsint.c"     if (b < 0)
000C   C187           00124         BSET    PFLAG,0
000D   EE00           00125         JBSET   r0x1002,7
000E   D187           00126         BCLR    PFLAG,0
000F   E187           00127         JBSET   PFLAG,0
0010   A000           00128         GOTO    _00106_DS_
                      00129 ;;genSkipc:3195: created from rifx:00DD608C
                      00130 ;;[ICODE] ../../libsdcc_mc32/_modsint.c:35:     if iTemp3 [k7 lr7:8 so:0]{ ia0 a2p0 re0 rm0 nos0 ru0 dp0}{char fixed} == 0 goto _iffalse_0($2)
                      00131 ;;[ICODE] ../../libsdcc_mc32/_modsint.c:36:     iTemp4 [k9 lr9:10 so:0]{ ia0 a2p0 re0 rm0 nos0 ru0 dp0}{int fixed}[r0x1004 r0x1005 ] = - iTemp0 [k2 lr3:36 so:0]{ ia0 a2p0 re1 rm0 nos0 ru0 dp0}{int fixed}{ sir@ __modsint_a_1_2}[r0x1000 r0x1001 ]
                      00132 ;       .line   36; "../../libsdcc_mc32/_modsint.c"     return _moduint ((unsigned int)-a, (unsigned int)-b);
0011   7000           00133         COMAR   r0x1001
0012   5600           00134         MOVRA   r0x1004
0013   7000           00135         COMAR   r0x1000
0014   5600           00136         MOVRA   r0x1005
0015   6600           00137         INCR    r0x1004
0016   F587           00138         JBCLR   PFLAG,2
0017   6600           00139         INCR    r0x1005
                      00140 ;;[ICODE] ../../libsdcc_mc32/_modsint.c:36:     iTemp5 [k10 lr10:14 so:0]{ ia0 a2p0 re0 rm0 nos0 ru1 dp0}{unsigned-int fixed}[r0x1006 r0x1007 ] = (unsigned-int fixed)iTemp4 [k9 lr9:10 so:0]{ ia0 a2p0 re0 rm0 nos0 ru0 dp0}{int fixed}[r0x1004 r0x1005 ]
0018   5800           00141         MOVAR   r0x1004
0019   5600           00142         MOVRA   r0x1006
001A   5800           00143         MOVAR   r0x1005
001B   5600           00144         MOVRA   r0x1007
                      00145 ;;[ICODE] ../../libsdcc_mc32/_modsint.c:36:     iTemp6 [k11 lr11:12 so:0]{ ia0 a2p0 re0 rm0 nos0 ru0 dp0}{int fixed}[r0x1004 r0x1005 ] = - iTemp1 [k4 lr4:37 so:0]{ ia0 a2p0 re1 rm0 nos0 ru0 dp0}{int fixed}{ sir@ __modsint_b_1_2}[r0x1002 r0x1003 ]
001C   7000           00146         COMAR   r0x1003
001D   5600           00147         MOVRA   r0x1004
001E   7000           00148         COMAR   r0x1002
001F   5600           00149         MOVRA   r0x1005
0020   6600           00150         INCR    r0x1004
0021   F587           00151         JBCLR   PFLAG,2
0022   6600           00152         INCR    r0x1005
                      00153 ;;[ICODE] ../../libsdcc_mc32/_modsint.c:36:     iTemp7 [k12 lr12:14 so:0]{ ia0 a2p0 re0 rm0 nos0 ru0 dp0}{unsigned-int fixed}[r0x1008 r0x1009 ] = (unsigned-int fixed)iTemp6 [k11 lr11:12 so:0]{ ia0 a2p0 re0 rm0 nos0 ru0 dp0}{int fixed}[r0x1004 r0x1005 ]
                      00154 ;;112   MOVAR   r0x1004
                      00155 ;;114   MOVAR   r0x1005
                      00156 ;;[ICODE] ../../libsdcc_mc32/_modsint.c:36:     send iTemp5 [k10 lr10:14 so:0]{ ia0 a2p0 re0 rm0 nos0 ru1 dp0}{unsigned-int fixed}[r0x1006 r0x1007 ]{argreg = 1}
                      00157 ;;[ICODE] ../../libsdcc_mc32/_modsint.c:36:     send iTemp7 [k12 lr12:14 so:0]{ ia0 a2p0 re0 rm0 nos0 ru0 dp0}{unsigned-int fixed}[r0x1008 r0x1009 ]{argreg = 1}
                      00158 ;;[ICODE] ../../libsdcc_mc32/_modsint.c:36:     iTemp8 [k15 lr15:16 so:0]{ ia0 a2p0 re0 rm0 nos0 ru1 dp0}{unsigned-int fixed}[r0x1004 r0x1005 ] = call __moduint [k8 lr0:0 so:0]{ ia0 a2p0 re0 rm0 nos0 ru0 dp0}{unsigned-int function ( unsigned-int fixed, unsigned-int fixed) fixed}
                      00159 ;;111   MOVAR   r0x1008
0023   5800           00160         MOVAR   r0x1004
0024   5600           00161         MOVRA   r0x1008
0025   5600           00162         MOVRA   STK02
                      00163 ;;113   MOVAR   r0x1009
0026   5800           00164         MOVAR   r0x1005
0027   5600           00165         MOVRA   r0x1009
0028   5600           00166         MOVRA   STK01
0029   5800           00167         MOVAR   r0x1006
002A   5600           00168         MOVRA   STK00
002B   5800           00169         MOVAR   r0x1007
002C   8000           00170         CALL    __moduint
002D   5600           00171         MOVRA   r0x1005
002E   5800           00172         MOVAR   STK00
002F   5600           00173         MOVRA   r0x1004
                      00174 ;;[ICODE] ../../libsdcc_mc32/_modsint.c:36:     ret iTemp8 [k15 lr15:16 so:0]{ ia0 a2p0 re0 rm0 nos0 ru1 dp0}{unsigned-int fixed}[r0x1004 r0x1005 ]
0030   5800           00175         MOVAR   r0x1004
0031   5600           00176         MOVRA   STK00
0032   5800           00177         MOVAR   r0x1005
0033   A000           00178         GOTO    _00114_DS_
                      00179 ;;[ICODE] ../../libsdcc_mc32/_modsint.c:36:  _iffalse_0($2) :
                      00180 ;;[ICODE] ../../libsdcc_mc32/_modsint.c:38:     iTemp9 [k16 lr18:19 so:0]{ ia0 a2p0 re0 rm0 nos0 ru0 dp0}{int fixed}[r0x1004 r0x1005 ] = - iTemp0 [k2 lr3:36 so:0]{ ia0 a2p0 re1 rm0 nos0 ru0 dp0}{int fixed}{ sir@ __modsint_a_1_2}[r0x1000 r0x1001 ]
0034                  00181 _00106_DS_
                      00182 ;       .line   38; "../../libsdcc_mc32/_modsint.c"     return _moduint ((unsigned int)-a, (unsigned int)b);
0034   7000           00183         COMAR   r0x1001
0035   5600           00184         MOVRA   r0x1004
0036   7000           00185         COMAR   r0x1000
0037   5600           00186         MOVRA   r0x1005
0038   6600           00187         INCR    r0x1004
0039   F587           00188         JBCLR   PFLAG,2
003A   6600           00189         INCR    r0x1005
                      00190 ;;[ICODE] ../../libsdcc_mc32/_modsint.c:38:     iTemp10 [k17 lr19:22 so:0]{ ia0 a2p0 re0 rm0 nos0 ru1 dp0}{unsigned-int fixed}[r0x1006 r0x1007 ] = (unsigned-int fixed)iTemp9 [k16 lr18:19 so:0]{ ia0 a2p0 re0 rm0 nos0 ru0 dp0}{int fixed}[r0x1004 r0x1005 ]
003B   5800           00191         MOVAR   r0x1004
003C   5600           00192         MOVRA   r0x1006
003D   5800           00193         MOVAR   r0x1005
003E   5600           00194         MOVRA   r0x1007
                      00195 ;;[ICODE] ../../libsdcc_mc32/_modsint.c:38:     iTemp11 [k18 lr20:22 so:0]{ ia0 a2p0 re0 rm0 nos0 ru0 dp0}{unsigned-int fixed}[r0x1004 r0x1005 ] = (unsigned-int fixed)iTemp1 [k4 lr4:37 so:0]{ ia0 a2p0 re1 rm0 nos0 ru0 dp0}{int fixed}{ sir@ __modsint_b_1_2}[r0x1002 r0x1003 ]
                      00196 ;;104   MOVAR   r0x1003
                      00197 ;;106   MOVAR   r0x1002
                      00198 ;;[ICODE] ../../libsdcc_mc32/_modsint.c:38:     send iTemp10 [k17 lr19:22 so:0]{ ia0 a2p0 re0 rm0 nos0 ru1 dp0}{unsigned-int fixed}[r0x1006 r0x1007 ]{argreg = 1}
                      00199 ;;[ICODE] ../../libsdcc_mc32/_modsint.c:38:     send iTemp11 [k18 lr20:22 so:0]{ ia0 a2p0 re0 rm0 nos0 ru0 dp0}{unsigned-int fixed}[r0x1004 r0x1005 ]{argreg = 1}
                      00200 ;;[ICODE] ../../libsdcc_mc32/_modsint.c:38:     iTemp12 [k19 lr23:24 so:0]{ ia0 a2p0 re0 rm0 nos0 ru1 dp0}{unsigned-int fixed}[r0x1004 r0x1005 ] = call __moduint [k8 lr0:0 so:0]{ ia0 a2p0 re0 rm0 nos0 ru0 dp0}{unsigned-int function ( unsigned-int fixed, unsigned-int fixed) fixed}
                      00201 ;;103   MOVAR   r0x1004
003F   5800           00202         MOVAR   r0x1003
0040   5600           00203         MOVRA   r0x1004
0041   5600           00204         MOVRA   STK02
                      00205 ;;105   MOVAR   r0x1005
0042   5800           00206         MOVAR   r0x1002
0043   5600           00207         MOVRA   r0x1005
0044   5600           00208         MOVRA   STK01
0045   5800           00209         MOVAR   r0x1006
0046   5600           00210         MOVRA   STK00
0047   5800           00211         MOVAR   r0x1007
0048   8000           00212         CALL    __moduint
0049   5600           00213         MOVRA   r0x1005
004A   5800           00214         MOVAR   STK00
004B   5600           00215         MOVRA   r0x1004
                      00216 ;;[ICODE] ../../libsdcc_mc32/_modsint.c:38:     ret iTemp12 [k19 lr23:24 so:0]{ ia0 a2p0 re0 rm0 nos0 ru1 dp0}{unsigned-int fixed}[r0x1004 r0x1005 ]
004C   5800           00217         MOVAR   r0x1004
004D   5600           00218         MOVRA   STK00
004E   5800           00219         MOVAR   r0x1005
004F   A000           00220         GOTO    _00114_DS_
                      00221 ;;[ICODE] ../../libsdcc_mc32/_modsint.c:38:  _iffalse_2($8) :
                      00222 ;;[ICODE] ../../libsdcc_mc32/_modsint.c:40:     iTemp13 [k20 lr26:27 so:0]{ ia0 a2p0 re0 rm0 nos0 ru0 dp0}{char fixed} = iTemp1 [k4 lr4:37 so:0]{ ia0 a2p0 re1 rm0 nos0 ru0 dp0}{int fixed}{ sir@ __modsint_b_1_2}[r0x1002 r0x1003 ] < 0x0 {int literal}
                      00223 ;;signed compare: left < lit(0x0=0), size=2, mask=ffff
0050                  00224 _00112_DS_
                      00225 ;       .line   40; "../../libsdcc_mc32/_modsint.c"     if (b < 0)
0050   C187           00226         BSET    PFLAG,0
0051   EE00           00227         JBSET   r0x1002,7
0052   D187           00228         BCLR    PFLAG,0
0053   E187           00229         JBSET   PFLAG,0
0054   A000           00230         GOTO    _00109_DS_
                      00231 ;;genSkipc:3195: created from rifx:00DD608C
                      00232 ;;[ICODE] ../../libsdcc_mc32/_modsint.c:40:     if iTemp13 [k20 lr26:27 so:0]{ ia0 a2p0 re0 rm0 nos0 ru0 dp0}{char fixed} == 0 goto _iffalse_1($5)
                      00233 ;;[ICODE] ../../libsdcc_mc32/_modsint.c:41:     iTemp14 [k21 lr28:32 so:0]{ ia0 a2p0 re0 rm0 nos0 ru1 dp0}{unsigned-int fixed}[r0x1004 r0x1005 ] = (unsigned-int fixed)iTemp0 [k2 lr3:36 so:0]{ ia0 a2p0 re1 rm0 nos0 ru0 dp0}{int fixed}{ sir@ __modsint_a_1_2}[r0x1000 r0x1001 ]
                      00234 ;       .line   41; "../../libsdcc_mc32/_modsint.c"     return _moduint ((unsigned int)a, (unsigned int)-b);
0055   5800           00235         MOVAR   r0x1001
0056   5600           00236         MOVRA   r0x1004
0057   5800           00237         MOVAR   r0x1000
0058   5600           00238         MOVRA   r0x1005
                      00239 ;;[ICODE] ../../libsdcc_mc32/_modsint.c:41:     iTemp15 [k22 lr29:30 so:0]{ ia0 a2p0 re0 rm0 nos0 ru0 dp0}{int fixed}[r0x1006 r0x1007 ] = - iTemp1 [k4 lr4:37 so:0]{ ia0 a2p0 re1 rm0 nos0 ru0 dp0}{int fixed}{ sir@ __modsint_b_1_2}[r0x1002 r0x1003 ]
0059   7000           00240         COMAR   r0x1003
005A   5600           00241         MOVRA   r0x1006
005B   7000           00242         COMAR   r0x1002
005C   5600           00243         MOVRA   r0x1007
005D   6600           00244         INCR    r0x1006
005E   F587           00245         JBCLR   PFLAG,2
005F   6600           00246         INCR    r0x1007
                      00247 ;;[ICODE] ../../libsdcc_mc32/_modsint.c:41:     iTemp16 [k23 lr30:32 so:0]{ ia0 a2p0 re0 rm0 nos0 ru0 dp0}{unsigned-int fixed}[r0x1008 r0x1009 ] = (unsigned-int fixed)iTemp15 [k22 lr29:30 so:0]{ ia0 a2p0 re0 rm0 nos0 ru0 dp0}{int fixed}[r0x1006 r0x1007 ]
                      00248 ;;108   MOVAR   r0x1006
                      00249 ;;110   MOVAR   r0x1007
                      00250 ;;[ICODE] ../../libsdcc_mc32/_modsint.c:41:     send iTemp14 [k21 lr28:32 so:0]{ ia0 a2p0 re0 rm0 nos0 ru1 dp0}{unsigned-int fixed}[r0x1004 r0x1005 ]{argreg = 1}
                      00251 ;;[ICODE] ../../libsdcc_mc32/_modsint.c:41:     send iTemp16 [k23 lr30:32 so:0]{ ia0 a2p0 re0 rm0 nos0 ru0 dp0}{unsigned-int fixed}[r0x1008 r0x1009 ]{argreg = 1}
                      00252 ;;[ICODE] ../../libsdcc_mc32/_modsint.c:41:     iTemp17 [k24 lr33:34 so:0]{ ia0 a2p0 re0 rm0 nos0 ru1 dp0}{unsigned-int fixed}[r0x1004 r0x1005 ] = call __moduint [k8 lr0:0 so:0]{ ia0 a2p0 re0 rm0 nos0 ru0 dp0}{unsigned-int function ( unsigned-int fixed, unsigned-int fixed) fixed}
                      00253 ;;107   MOVAR   r0x1008
0060   5800           00254         MOVAR   r0x1006
0061   5600           00255         MOVRA   r0x1008
0062   5600           00256         MOVRA   STK02
                      00257 ;;109   MOVAR   r0x1009
0063   5800           00258         MOVAR   r0x1007
0064   5600           00259         MOVRA   r0x1009
0065   5600           00260         MOVRA   STK01
0066   5800           00261         MOVAR   r0x1004
0067   5600           00262         MOVRA   STK00
0068   5800           00263         MOVAR   r0x1005
0069   8000           00264         CALL    __moduint
006A   5600           00265         MOVRA   r0x1005
006B   5800           00266         MOVAR   STK00
006C   5600           00267         MOVRA   r0x1004
                      00268 ;;[ICODE] ../../libsdcc_mc32/_modsint.c:41:     ret iTemp17 [k24 lr33:34 so:0]{ ia0 a2p0 re0 rm0 nos0 ru1 dp0}{unsigned-int fixed}[r0x1004 r0x1005 ]
006D   5800           00269         MOVAR   r0x1004
006E   5600           00270         MOVRA   STK00
006F   5800           00271         MOVAR   r0x1005
0070   A000           00272         GOTO    _00114_DS_
                      00273 ;;[ICODE] ../../libsdcc_mc32/_modsint.c:41:  _iffalse_1($5) :
                      00274 ;;[ICODE] ../../libsdcc_mc32/_modsint.c:43:     iTemp18 [k25 lr36:39 so:0]{ ia0 a2p0 re0 rm0 nos0 ru1 dp0}{unsigned-int fixed}[r0x1004 r0x1005 ] = (unsigned-int fixed)iTemp0 [k2 lr3:36 so:0]{ ia0 a2p0 re1 rm0 nos0 ru0 dp0}{int fixed}{ sir@ __modsint_a_1_2}[r0x1000 r0x1001 ]
0071                  00275 _00109_DS_
                      00276 ;       .line   43; "../../libsdcc_mc32/_modsint.c"     return _moduint ((unsigned int)a, (unsigned int)b);
0071   5800           00277         MOVAR   r0x1001
0072   5600           00278         MOVRA   r0x1004
0073   5800           00279         MOVAR   r0x1000
0074   5600           00280         MOVRA   r0x1005
                      00281 ;;[ICODE] ../../libsdcc_mc32/_modsint.c:43:     iTemp19 [k26 lr37:39 so:0]{ ia0 a2p0 re0 rm0 nos0 ru0 dp0}{unsigned-int fixed}[r0x1000 r0x1001 ] = (unsigned-int fixed)iTemp1 [k4 lr4:37 so:0]{ ia0 a2p0 re1 rm0 nos0 ru0 dp0}{int fixed}{ sir@ __modsint_b_1_2}[r0x1002 r0x1003 ]
                      00282 ;;100   MOVAR   r0x1003
                      00283 ;;102   MOVAR   r0x1002
                      00284 ;;[ICODE] ../../libsdcc_mc32/_modsint.c:43:     send iTemp18 [k25 lr36:39 so:0]{ ia0 a2p0 re0 rm0 nos0 ru1 dp0}{unsigned-int fixed}[r0x1004 r0x1005 ]{argreg = 1}
                      00285 ;;[ICODE] ../../libsdcc_mc32/_modsint.c:43:     send iTemp19 [k26 lr37:39 so:0]{ ia0 a2p0 re0 rm0 nos0 ru0 dp0}{unsigned-int fixed}[r0x1000 r0x1001 ]{argreg = 1}
                      00286 ;;[ICODE] ../../libsdcc_mc32/_modsint.c:43:     iTemp20 [k27 lr40:41 so:0]{ ia0 a2p0 re0 rm0 nos0 ru1 dp0}{unsigned-int fixed}[r0x1000 r0x1001 ] = call __moduint [k8 lr0:0 so:0]{ ia0 a2p0 re0 rm0 nos0 ru0 dp0}{unsigned-int function ( unsigned-int fixed, unsigned-int fixed) fixed}
                      00287 ;;99    MOVAR   r0x1001
0075   5800           00288         MOVAR   r0x1003
0076   5600           00289         MOVRA   r0x1001
0077   5600           00290         MOVRA   STK02
                      00291 ;;101   MOVAR   r0x1000
0078   5800           00292         MOVAR   r0x1002
0079   5600           00293         MOVRA   r0x1000
007A   5600           00294         MOVRA   STK01
007B   5800           00295         MOVAR   r0x1004
007C   5600           00296         MOVRA   STK00
007D   5800           00297         MOVAR   r0x1005
007E   8000           00298         CALL    __moduint
007F   5600           00299         MOVRA   r0x1000
0080   5800           00300         MOVAR   STK00
0081   5600           00301         MOVRA   r0x1001
                      00302 ;;[ICODE] ../../libsdcc_mc32/_modsint.c:43:     ret iTemp20 [k27 lr40:41 so:0]{ ia0 a2p0 re0 rm0 nos0 ru1 dp0}{unsigned-int fixed}[r0x1000 r0x1001 ]
0082   5800           00303         MOVAR   r0x1001
0083   5600           00304         MOVRA   STK00
0084   5800           00305         MOVAR   r0x1000
                      00306 ;;[ICODE] ../../libsdcc_mc32/_modsint.c:43:  _return($10) :
                      00307 ;;[ICODE] ../../libsdcc_mc32/_modsint.c:43:     eproc __modsint [k1 lr0:0 so:0]{ ia0 a2p0 re0 rm0 nos0 ru0 dp0}{int function ( int fixed, int fixed) fixed}
0085                  00308 _00114_DS_
0085   000C           00309         RETURN  
                      00310 ; exit point of __modsint
                      00311 
                      00312 
                      00313 ;       code size estimation:
                      00314 ;         134+    0 =   134 instructions (  268 byte)
                      00315 
                      00316         end
gpasm-2.0.0_beta2 (Nov  6 2017)_modsint.asm       2018-1-11  14:01:28          PAGE  2


SYMBOL TABLE
  LABEL                             VALUE

ADCHS0                            00000004
ADCHS1                            00000005
ADCHS2                            00000006
ADCHS3                            00000007
ADCKS0                            00000002
ADCKS1                            00000003
ADCR0                             000001B0
ADCR1                             000001B1
ADEOC                             00000001
ADIE                              00000006
ADIF                              00000006
ADON                              00000000
ADR0                              00000000
ADR1                              00000001
ADR10                             00000006
ADR11                             00000007
ADR2                              00000002
ADR3                              00000003
ADR4                              00000000
ADR5                              00000001
ADR6                              00000002
ADR7                              00000003
ADR8                              00000004
ADR9                              00000005
ADRH                              000001B4
ADRL                              000001B5
ANSEL                             00000193
BUZ0OE                            00000005
BUZ1OE                            00000005
C                                 00000000
CLKS                              00000002
DC                                00000001
FSR0                              00000184
FSR00                             00000000
FSR01                             00000001
FSR02                             00000002
FSR03                             00000003
FSR04                             00000004
FSR05                             00000005
FSR06                             00000006
FSR07                             00000007
FSR1                              00000185
FSR10                             00000000
FSR11                             00000001
FSR12                             00000002
FSR13                             00000003
FSR14                             00000004
FSR15                             00000005
FSR16                             00000006
FSR17                             00000007
GIE                               00000007
HFEN                              00000000
HIBYTE                            00000183
HIBYTE0                           00000000
HIBYTE1                           00000001
HIBYTE2                           00000002
HIBYTE3                           00000003
HIBYTE4                           00000004
HIBYTE5                           00000005
HIBYTE6                           00000006
HIBYTE7                           00000007
INDF0                             00000180
INDF00                            00000000
INDF01                            00000001
INDF02                            00000002
INDF03                            00000003
INDF04                            00000004
INDF05                            00000005
INDF06                            00000006
INDF07                            00000007
INDF1                             00000181
INDF10                            00000000
INDF11                            00000001
INDF12                            00000002
INDF13                            00000003
INDF14                            00000004
INDF15                            00000005
INDF16                            00000006
INDF17                            00000007
INDF2                             00000182
INDF20                            00000000
INDF21                            00000001
INDF22                            00000002
INDF23                            00000003
INDF24                            00000004
INDF25                            00000005
INDF26                            00000006
INDF27                            00000007
INDF3                             00000189
INDF30                            00000000
INDF31                            00000001
INDF32                            00000002
INDF33                            00000003
INDF34                            00000004
INDF35                            00000005
INDF36                            00000006
INDF37                            00000007
INT0IE                            00000002
INT0IF                            00000002
INT1IE                            00000003
INT1IF                            00000003
INTE                              0000018A
INTF                              0000018B
IOP0                              00000190
IOP1                              00000194
KBCR                              00000197
KBCR0                             00000000
KBCR1                             00000001
KBCR2                             00000002
KBCR3                             00000003
KBCR4                             00000004
KBCR5                             00000005
KBCR6                             00000006
KBIE                              00000004
KBIF                              00000004
LFEN                              00000001
LVDCR                             000001AF
LVDEN                             00000007
LVDF                              00000000
LVDS0                             00000004
LVDS1                             00000005
LVDS2                             00000006
MCR                               00000188
MINT00                            00000000
MINT01                            00000001
MINT10                            00000002
MINT11                            00000003
OEP0                              00000191
OEP1                              00000195
OSCCAL                            000001FB
OSCCAL0                           00000000
OSCCAL1                           00000001
OSCCAL2                           00000002
OSCCAL3                           00000003
OSCCAL4                           00000004
OSCCAL5                           00000005
OSCCAL6                           00000006
OSCCAL7                           00000007
OSCM                              000001AE
P00ANS                            00000000
P00D                              00000000
P00OE                             00000000
P00PU                             00000000
P01ANS                            00000001
P01D                              00000001
P01OE                             00000001
P01PU                             00000001
P02ANS                            00000002
P02D                              00000002
P02OE                             00000002
P02PU                             00000002
P03ANS                            00000003
P03D                              00000003
P03OE                             00000003
P03PU                             00000003
P04ANS                            00000004
P04D                              00000004
P04OE                             00000004
P04PU                             00000004
P10D                              00000000
P10OE                             00000000
P10PU                             00000000
P11D                              00000001
P11OE                             00000001
P11PU                             00000001
P12ANS                            00000005
P12D                              00000002
P12OE                             00000002
P12PU                             00000002
P13ANS                            00000006
P13D                              00000003
P13OE                             00000003
P13PU                             00000003
P14D                              00000004
P14OE                             00000004
P14PU                             00000004
P15D                              00000005
P15OE                             00000005
P15PU                             00000005
P16D                              00000006
P16OE                             00000006
P16PU                             00000006
PC0                               00000000
PC1                               00000001
PC2                               00000002
PC3                               00000003
PC4                               00000004
PC5                               00000005
PC6                               00000006
PC7                               00000007
PCL                               00000186
PD                                00000004
PFLAG                             00000187
PUP0                              00000192
PUP1                              00000196
PWM0OE                            00000006
PWM1OE                            00000006
STBH                              00000004
STBL                              00000005
STK00                             00000000
STK01                             00000000
STK02                             00000000
STK03                             00000000
STK04                             00000000
STK05                             00000000
STK06                             00000000
T0C0                              00000000
T0C1                              00000001
T0C2                              00000002
T0C3                              00000003
T0C4                              00000004
T0C5                              00000005
T0C6                              00000006
T0C7                              00000007
T0CNT                             000001A1
T0CR                              000001A0
T0DATA                            000001A3
T0DATA0                           00000000
T0DATA1                           00000001
T0DATA2                           00000002
T0DATA3                           00000003
T0DATA4                           00000004
T0DATA5                           00000005
T0DATA6                           00000006
T0DATA7                           00000007
T0IE                              00000000
T0IF                              00000000
T0LOAD                            000001A2
T0LOAD0                           00000000
T0LOAD1                           00000001
T0LOAD2                           00000002
T0LOAD3                           00000003
T0LOAD4                           00000004
T0LOAD5                           00000005
T0LOAD6                           00000006
T0LOAD7                           00000007
T0PR0                             00000000
T0PR1                             00000001
T0PR2                             00000002
T0PTS0                            00000003
T0PTS1                            00000004
T1C0                              00000000
T1C1                              00000001
T1C2                              00000002
T1C3                              00000003
T1C4                              00000004
T1C5                              00000005
T1C6                              00000006
T1C7                              00000007
T1CNT                             000001A5
T1CR                              000001A4
T1DATA                            000001A7
T1DATA0                           00000000
T1DATA1                           00000001
T1DATA2                           00000002
T1DATA3                           00000003
T1DATA4                           00000004
T1DATA5                           00000005
T1DATA6                           00000006
T1DATA7                           00000007
T1IE                              00000001
T1IF                              00000001
T1LOAD                            000001A6
T1LOAD0                           00000000
T1LOAD1                           00000001
T1LOAD2                           00000002
T1LOAD3                           00000003
T1LOAD4                           00000004
T1LOAD5                           00000005
T1LOAD6                           00000006
T1LOAD7                           00000007
T1PR0                             00000000
T1PR1                             00000001
T1PR2                             00000002
T1PTS0                            00000003
T1PTS1                            00000004
TC0EN                             00000007
TC1EN                             00000007
TO                                00000005
VRS0                              00000000
VRS1                              00000001
VRS2                              00000002
Z                                 00000002
_00106_DS_                        00000034
_00109_DS_                        00000071
_00112_DS_                        00000050
_00114_DS_                        00000085
_CONFIG0                          00008000
_CONFIG1                          00008001
__32P21                           00000001
__modsint                         00000000
__moduint                         00000000
r0x1000                           00000001
r0x1001                           00000000
r0x1002                           00000003
r0x1003                           00000002
r0x1004                           00000004
r0x1005                           00000005
r0x1006                           00000006
r0x1007                           00000007
r0x1008                           00000008
r0x1009                           00000009

Errors   :     0
Warnings :     0 reported,     0 suppressed
Messages :     0 reported,     0 suppressed

