gpasm-2.0.0_beta2 (Nov  6 2017)slong2fs.asm       2018-1-12  10:28:31          PAGE  1


LOC  OBJECT CODE     LINE SOURCE TEXT
  VALUE

                      00001 ;--------------------------------------------------------
                      00002 ; File Created by SN-SDCC : SinoMCU ANSI-C Compiler
                      00003 ; Version 1.1.0 (Dec 19 2017) (MINGW32)
                      00004 ; This file was generated Fri Jan 12 10:28:31 2018
                      00005 ;--------------------------------------------------------
                      00006 ; MC32 port for the RISC core
                      00007 ;--------------------------------------------------------
                      00008 ;       .file   "../../libsdcc_mc32/slong2fs.c"
                      00009         list    p=3221
                      00010         radix dec
                      00011         include "3221.inc"
                      00001                 LIST
                      00002 ;mc32p7010.inc    Standard Header File, Version 1.00 by Sinomcu
                      00435                 LIST
                      00012 ;--------------------------------------------------------
                      00013 ; external declarations
                      00014 ;--------------------------------------------------------
                      00015         extern  ___uchar2fs
                      00016         extern  ___schar2fs
                      00017         extern  ___uint2fs
                      00018         extern  ___sint2fs
                      00019         extern  ___ulong2fs
                      00020         extern  ___fs2uchar
                      00021         extern  ___fs2schar
                      00022         extern  ___fs2uint
                      00023         extern  ___fs2sint
                      00024         extern  ___fs2ulong
                      00025         extern  ___fs2slong
                      00026         extern  ___fsadd
                      00027         extern  ___fssub
                      00028         extern  ___fsmul
                      00029         extern  ___fsdiv
                      00030         extern  ___fslt
                      00031         extern  ___fseq
                      00032         extern  ___fsneq
                      00033         extern  ___fsgt
                      00034 
                      00035         extern STK06
                      00036         extern STK05
                      00037         extern STK04
                      00038         extern STK03
                      00039         extern STK02
                      00040         extern STK01
                      00041         extern STK00
                      00042 ;--------------------------------------------------------
                      00043 ; global declarations
                      00044 ;--------------------------------------------------------
                      00045         global  ___slong2fs
                      00046 
                      00047 ;--------------------------------------------------------
                      00048 ; global definitions
                      00049 ;--------------------------------------------------------
                      00050 ;--------------------------------------------------------
                      00051 ; absolute symbol definitions
                      00052 ;--------------------------------------------------------
                      00053 ;--------------------------------------------------------
                      00054 ; compiler-defined variables
                      00055 ;--------------------------------------------------------
                      00056 UDL_slong2fs_0  udata
0000                  00057 r0x1003 res     1
0000                  00058 r0x1002 res     1
0001                  00059 r0x1001 res     1
0001                  00060 r0x1000 res     1
0002                  00061 r0x1004 res     1
0002                  00062 r0x1005 res     1
0003                  00063 r0x1006 res     1
0003                  00064 r0x1007 res     1
                      00065 ;--------------------------------------------------------
                      00066 ; initialized data
                      00067 ;--------------------------------------------------------
                      00068 
                      00069 ;@Allocation info for local variables in function '__slong2fs'
                      00070 ;@__slong2fs __uchar2fs                Allocated to registers ;size:2
                      00071 ;@__slong2fs __schar2fs                Allocated to registers ;size:2
                      00072 ;@__slong2fs __uint2fs                 Allocated to registers ;size:2
                      00073 ;@__slong2fs __sint2fs                 Allocated to registers ;size:2
                      00074 ;@__slong2fs __ulong2fs                Allocated to registers ;size:2
                      00075 ;@__slong2fs __fs2uchar                Allocated to registers ;size:2
                      00076 ;@__slong2fs __fs2schar                Allocated to registers ;size:2
                      00077 ;@__slong2fs __fs2uint                 Allocated to registers ;size:2
                      00078 ;@__slong2fs __fs2sint                 Allocated to registers ;size:2
                      00079 ;@__slong2fs __fs2ulong                Allocated to registers ;size:2
                      00080 ;@__slong2fs __fs2slong                Allocated to registers ;size:2
                      00081 ;@__slong2fs __fsadd                   Allocated to registers ;size:2
                      00082 ;@__slong2fs __fssub                   Allocated to registers ;size:2
                      00083 ;@__slong2fs __fsmul                   Allocated to registers ;size:2
                      00084 ;@__slong2fs __fsdiv                   Allocated to registers ;size:2
                      00085 ;@__slong2fs __fslt                    Allocated to registers ;size:2
                      00086 ;@__slong2fs __fseq                    Allocated to registers ;size:2
                      00087 ;@__slong2fs __fsneq                   Allocated to registers ;size:2
                      00088 ;@__slong2fs __fsgt                    Allocated to registers ;size:2
                      00089 ;@__slong2fs sl                        Allocated to registers r0x1003 r0x1002 r0x1001 r0x1000 ;size:4
                      00090 ;@end Allocation info for local variables in function '__slong2fs';
                      00091 
                      00092 ;--------------------------------------------------------
                      00093 ; overlayable items in internal ram 
                      00094 ;--------------------------------------------------------
                      00095 ;       udata_ovr
                      00096 ;--------------------------------------------------------
                      00097 ; code
                      00098 ;--------------------------------------------------------
                      00099 code_slong2fs   code
                      00100 ;***
                      00101 ;  pBlock Stats: dbName = C
                      00102 ;***
                      00103 ;entry:  ___slong2fs    ;Function start
                      00104 ; 2 exit points
                      00105 ;has an exit
                      00106 ;functions called:
                      00107 ;   ___ulong2fs
                      00108 ;   ___ulong2fs
                      00109 ;   ___ulong2fs
                      00110 ;   ___ulong2fs
                      00111 ;11 compiler assigned registers:
                      00112 ;   r0x1000
                      00113 ;   STK00
                      00114 ;   r0x1001
                      00115 ;   STK01
                      00116 ;   r0x1002
                      00117 ;   STK02
                      00118 ;   r0x1003
                      00119 ;   r0x1004
                      00120 ;   r0x1005
                      00121 ;   r0x1006
                      00122 ;   r0x1007
                      00123 ;; Starting pCode block
                      00124 ;;[ICODE] ../../libsdcc_mc32/slong2fs.c:33:  _entry($5) :
                      00125 ;;[ICODE] ../../libsdcc_mc32/slong2fs.c:33:     proc ___slong2fs [k1 lr0:0 so:0]{ ia0 a2p0 re0 rm0 nos0 ru0 dp0}{float function ( long-int fixed) fixed}
0000                  00126 ___slong2fs     ;Function start
                      00127 ; 2 exit points
                      00128 ;;[ICODE] ../../libsdcc_mc32/slong2fs.c:33: iTemp0 [k2 lr3:12 so:0]{ ia0 a2p0 re1 rm0 nos0 ru0 dp0}{long-int fixed}{ sir@ ___slong2fs_sl_1_21}[r0x1000 r0x1001 r0x1002 r0x1003 ] = recv ___slong2fs [k1 lr0:0 so:0]{ ia0 a2p0 re0 rm0 nos0 ru0 dp0}{float function ( long-int fixed) fixed}
                      00129 ;       .line   33; "../../libsdcc_mc32/slong2fs.c"     float __slong2fs (signed long sl) _FS_REENTRANT
0000   5600           00130         MOVRA   r0x1000
0001   5800           00131         MOVAR   STK00
0002   5600           00132         MOVRA   r0x1001
0003   5800           00133         MOVAR   STK01
0004   5600           00134         MOVRA   r0x1002
0005   5800           00135         MOVAR   STK02
0006   5600           00136         MOVRA   r0x1003
                      00137 ;;[ICODE] ../../libsdcc_mc32/slong2fs.c:35:     iTemp1 [k4 lr4:5 so:0]{ ia0 a2p0 re0 rm0 nos0 ru0 dp0}{char fixed} = iTemp0 [k2 lr3:12 so:0]{ ia0 a2p0 re1 rm0 nos0 ru0 dp0}{long-int fixed}{ sir@ ___slong2fs_sl_1_21}[r0x1000 r0x1001 r0x1002 r0x1003 ] < 0x0 {long-int literal}
                      00138 ;;signed compare: left < lit(0x0=0), size=4, mask=ffffffff
                      00139 ;       .line   35; "../../libsdcc_mc32/slong2fs.c"     if (sl<0) 
0007   C187           00140         BSET    PFLAG,0
0008   EE00           00141         JBSET   r0x1000,7
0009   D187           00142         BCLR    PFLAG,0
000A   E187           00143         JBSET   PFLAG,0
000B   A000           00144         GOTO    _00106_DS_
                      00145 ;;genSkipc:3195: created from rifx:00DE608C
                      00146 ;;[ICODE] ../../libsdcc_mc32/slong2fs.c:35:     if iTemp1 [k4 lr4:5 so:0]{ ia0 a2p0 re0 rm0 nos0 ru0 dp0}{char fixed} == 0 goto _iffalse_0($2)
                      00147 ;;[ICODE] ../../libsdcc_mc32/slong2fs.c:36:     iTemp2 [k6 lr6:7 so:0]{ ia0 a2p0 re0 rm0 nos0 ru1 dp0}{long-int fixed}[r0x1004 r0x1005 r0x1006 r0x1007 ] = - iTemp0 [k2 lr3:12 so:0]{ ia0 a2p0 re1 rm0 nos0 ru0 dp0}{long-int fixed}{ sir@ ___slong2fs_sl_1_21}[r0x1000 r0x1001 r0x1002 r0x1003 ]
                      00148 ;       .line   36; "../../libsdcc_mc32/slong2fs.c"     return -__ulong2fs(-sl);
000C   7000           00149         COMAR   r0x1003
000D   5600           00150         MOVRA   r0x1004
000E   7000           00151         COMAR   r0x1002
000F   5600           00152         MOVRA   r0x1005
0010   7000           00153         COMAR   r0x1001
0011   5600           00154         MOVRA   r0x1006
0012   7000           00155         COMAR   r0x1000
0013   5600           00156         MOVRA   r0x1007
0014   6600           00157         INCR    r0x1004
0015   F587           00158         JBCLR   PFLAG,2
0016   6600           00159         INCR    r0x1005
0017   F587           00160         JBCLR   PFLAG,2
0018   6600           00161         INCR    r0x1006
0019   F587           00162         JBCLR   PFLAG,2
001A   6600           00163         INCR    r0x1007
                      00164 ;;[ICODE] ../../libsdcc_mc32/slong2fs.c:36:     send iTemp2 [k6 lr6:7 so:0]{ ia0 a2p0 re0 rm0 nos0 ru1 dp0}{long-int fixed}[r0x1004 r0x1005 r0x1006 r0x1007 ]{argreg = 1}
                      00165 ;;[ICODE] ../../libsdcc_mc32/slong2fs.c:36:     iTemp3 [k8 lr8:9 so:0]{ ia0 a2p0 re0 rm0 nos0 ru0 dp0}{float fixed}[r0x1004 r0x1005 r0x1006 r0x1007 ] = call ___ulong2fs [k5 lr0:0 so:0]{ ia0 a2p0 re0 rm0 nos0 ru0 dp0}{float function ( unsigned-long-int fixed) fixed}
001B   5800           00166         MOVAR   r0x1004
001C   5600           00167         MOVRA   STK02
001D   5800           00168         MOVAR   r0x1005
001E   5600           00169         MOVRA   STK01
001F   5800           00170         MOVAR   r0x1006
0020   5600           00171         MOVRA   STK00
0021   5800           00172         MOVAR   r0x1007
0022   8000           00173         CALL    ___ulong2fs
0023   5600           00174         MOVRA   r0x1007
0024   5800           00175         MOVAR   STK00
0025   5600           00176         MOVRA   r0x1006
0026   5800           00177         MOVAR   STK01
0027   5600           00178         MOVRA   r0x1005
0028   5800           00179         MOVAR   STK02
0029   5600           00180         MOVRA   r0x1004
                      00181 ;;[ICODE] ../../libsdcc_mc32/slong2fs.c:36:     iTemp4 [k9 lr9:10 so:0]{ ia0 a2p0 re0 rm0 nos0 ru1 dp0}{float fixed}[r0x1004 r0x1005 r0x1006 r0x1007 ] = - iTemp3 [k8 lr8:9 so:0]{ ia0 a2p0 re0 rm0 nos0 ru0 dp0}{float fixed}[r0x1004 r0x1005 r0x1006 r0x1007 ]
002A   5800           00182         MOVAR   r0x1007
002B   3980           00183         XORAI   0x80
002C   5600           00184         MOVRA   r0x1007
002D   5800           00185         MOVAR   r0x1006
002E   5600           00186         MOVRA   r0x1006
002F   5800           00187         MOVAR   r0x1005
0030   5600           00188         MOVRA   r0x1005
0031   5800           00189         MOVAR   r0x1004
0032   5600           00190         MOVRA   r0x1004
                      00191 ;;[ICODE] ../../libsdcc_mc32/slong2fs.c:36:     ret iTemp4 [k9 lr9:10 so:0]{ ia0 a2p0 re0 rm0 nos0 ru1 dp0}{float fixed}[r0x1004 r0x1005 r0x1006 r0x1007 ]
0033   5800           00192         MOVAR   r0x1004
0034   5600           00193         MOVRA   STK02
0035   5800           00194         MOVAR   r0x1005
0036   5600           00195         MOVRA   STK01
0037   5800           00196         MOVAR   r0x1006
0038   5600           00197         MOVRA   STK00
0039   5800           00198         MOVAR   r0x1007
003A   A000           00199         GOTO    _00108_DS_
                      00200 ;;[ICODE] ../../libsdcc_mc32/slong2fs.c:36:  _iffalse_0($2) :
                      00201 ;;[ICODE] ../../libsdcc_mc32/slong2fs.c:38:     send iTemp0 [k2 lr3:12 so:0]{ ia0 a2p0 re1 rm0 nos0 ru0 dp0}{long-int fixed}{ sir@ ___slong2fs_sl_1_21}[r0x1000 r0x1001 r0x1002 r0x1003 ]{argreg = 1}
                      00202 ;;[ICODE] ../../libsdcc_mc32/slong2fs.c:38:     iTemp5 [k10 lr13:14 so:0]{ ia0 a2p0 re0 rm0 nos0 ru1 dp0}{float fixed}[r0x1000 r0x1001 r0x1002 r0x1003 ] = call ___ulong2fs [k5 lr0:0 so:0]{ ia0 a2p0 re0 rm0 nos0 ru0 dp0}{float function ( unsigned-long-int fixed) fixed}
003B                  00203 _00106_DS_
                      00204 ;       .line   38; "../../libsdcc_mc32/slong2fs.c"     return __ulong2fs(sl);
003B   5800           00205         MOVAR   r0x1003
003C   5600           00206         MOVRA   STK02
003D   5800           00207         MOVAR   r0x1002
003E   5600           00208         MOVRA   STK01
003F   5800           00209         MOVAR   r0x1001
0040   5600           00210         MOVRA   STK00
0041   5800           00211         MOVAR   r0x1000
0042   8000           00212         CALL    ___ulong2fs
0043   5600           00213         MOVRA   r0x1000
0044   5800           00214         MOVAR   STK00
0045   5600           00215         MOVRA   r0x1001
0046   5800           00216         MOVAR   STK01
0047   5600           00217         MOVRA   r0x1002
0048   5800           00218         MOVAR   STK02
0049   5600           00219         MOVRA   r0x1003
                      00220 ;;[ICODE] ../../libsdcc_mc32/slong2fs.c:38:     ret iTemp5 [k10 lr13:14 so:0]{ ia0 a2p0 re0 rm0 nos0 ru1 dp0}{float fixed}[r0x1000 r0x1001 r0x1002 r0x1003 ]
004A   5800           00221         MOVAR   r0x1003
004B   5600           00222         MOVRA   STK02
004C   5800           00223         MOVAR   r0x1002
004D   5600           00224         MOVRA   STK01
004E   5800           00225         MOVAR   r0x1001
004F   5600           00226         MOVRA   STK00
0050   5800           00227         MOVAR   r0x1000
                      00228 ;;[ICODE] ../../libsdcc_mc32/slong2fs.c:38:  _return($4) :
                      00229 ;;[ICODE] ../../libsdcc_mc32/slong2fs.c:38:     eproc ___slong2fs [k1 lr0:0 so:0]{ ia0 a2p0 re0 rm0 nos0 ru0 dp0}{float function ( long-int fixed) fixed}
0051                  00230 _00108_DS_
0051   000C           00231         RETURN  
                      00232 ; exit point of ___slong2fs
                      00233 
                      00234 
                      00235 ;       code size estimation:
                      00236 ;          82+    0 =    82 instructions (  164 byte)
                      00237 
                      00238         end
gpasm-2.0.0_beta2 (Nov  6 2017)slong2fs.asm       2018-1-12  10:28:31          PAGE  2


SYMBOL TABLE
  LABEL                             VALUE

ADCHS0                            00000004
ADCHS1                            00000005
ADCHS2                            00000006
ADCHS3                            00000007
ADCKS0                            00000002
ADCKS1                            00000003
ADCR0                             000001B0
ADCR1                             000001B1
ADEOC                             00000001
ADIE                              00000006
ADIF                              00000006
ADON                              00000000
ADR0                              00000000
ADR1                              00000001
ADR10                             00000006
ADR11                             00000007
ADR2                              00000002
ADR3                              00000003
ADR4                              00000000
ADR5                              00000001
ADR6                              00000002
ADR7                              00000003
ADR8                              00000004
ADR9                              00000005
ADRH                              000001B4
ADRL                              000001B5
ANSEL                             00000193
BUZ0OE                            00000005
BUZ1OE                            00000005
C                                 00000000
CLKS                              00000002
DC                                00000001
FSR0                              00000184
FSR00                             00000000
FSR01                             00000001
FSR02                             00000002
FSR03                             00000003
FSR04                             00000004
FSR05                             00000005
FSR06                             00000006
FSR07                             00000007
FSR1                              00000185
FSR10                             00000000
FSR11                             00000001
FSR12                             00000002
FSR13                             00000003
FSR14                             00000004
FSR15                             00000005
FSR16                             00000006
FSR17                             00000007
GIE                               00000007
HFEN                              00000000
HIBYTE                            00000183
HIBYTE0                           00000000
HIBYTE1                           00000001
HIBYTE2                           00000002
HIBYTE3                           00000003
HIBYTE4                           00000004
HIBYTE5                           00000005
HIBYTE6                           00000006
HIBYTE7                           00000007
INDF0                             00000180
INDF00                            00000000
INDF01                            00000001
INDF02                            00000002
INDF03                            00000003
INDF04                            00000004
INDF05                            00000005
INDF06                            00000006
INDF07                            00000007
INDF1                             00000181
INDF10                            00000000
INDF11                            00000001
INDF12                            00000002
INDF13                            00000003
INDF14                            00000004
INDF15                            00000005
INDF16                            00000006
INDF17                            00000007
INDF2                             00000182
INDF20                            00000000
INDF21                            00000001
INDF22                            00000002
INDF23                            00000003
INDF24                            00000004
INDF25                            00000005
INDF26                            00000006
INDF27                            00000007
INDF3                             00000189
INDF30                            00000000
INDF31                            00000001
INDF32                            00000002
INDF33                            00000003
INDF34                            00000004
INDF35                            00000005
INDF36                            00000006
INDF37                            00000007
INT0IE                            00000002
INT0IF                            00000002
INT1IE                            00000003
INT1IF                            00000003
INTE                              0000018A
INTF                              0000018B
IOP0                              00000190
IOP1                              00000194
KBCR                              00000197
KBCR0                             00000000
KBCR1                             00000001
KBCR2                             00000002
KBCR3                             00000003
KBCR4                             00000004
KBCR5                             00000005
KBCR6                             00000006
KBIE                              00000004
KBIF                              00000004
LFEN                              00000001
LVDCR                             000001AF
LVDEN                             00000007
LVDF                              00000000
LVDS0                             00000004
LVDS1                             00000005
LVDS2                             00000006
MCR                               00000188
MINT00                            00000000
MINT01                            00000001
MINT10                            00000002
MINT11                            00000003
OEP0                              00000191
OEP1                              00000195
OSCCAL                            000001FB
OSCCAL0                           00000000
OSCCAL1                           00000001
OSCCAL2                           00000002
OSCCAL3                           00000003
OSCCAL4                           00000004
OSCCAL5                           00000005
OSCCAL6                           00000006
OSCCAL7                           00000007
OSCM                              000001AE
P00ANS                            00000000
P00D                              00000000
P00OE                             00000000
P00PU                             00000000
P01ANS                            00000001
P01D                              00000001
P01OE                             00000001
P01PU                             00000001
P02ANS                            00000002
P02D                              00000002
P02OE                             00000002
P02PU                             00000002
P03ANS                            00000003
P03D                              00000003
P03OE                             00000003
P03PU                             00000003
P04ANS                            00000004
P04D                              00000004
P04OE                             00000004
P04PU                             00000004
P10D                              00000000
P10OE                             00000000
P10PU                             00000000
P11D                              00000001
P11OE                             00000001
P11PU                             00000001
P12ANS                            00000005
P12D                              00000002
P12OE                             00000002
P12PU                             00000002
P13ANS                            00000006
P13D                              00000003
P13OE                             00000003
P13PU                             00000003
P14D                              00000004
P14OE                             00000004
P14PU                             00000004
P15D                              00000005
P15OE                             00000005
P15PU                             00000005
P16D                              00000006
P16OE                             00000006
P16PU                             00000006
PC0                               00000000
PC1                               00000001
PC2                               00000002
PC3                               00000003
PC4                               00000004
PC5                               00000005
PC6                               00000006
PC7                               00000007
PCL                               00000186
PD                                00000004
PFLAG                             00000187
PUP0                              00000192
PUP1                              00000196
PWM0OE                            00000006
PWM1OE                            00000006
STBH                              00000004
STBL                              00000005
STK00                             00000000
STK01                             00000000
STK02                             00000000
STK03                             00000000
STK04                             00000000
STK05                             00000000
STK06                             00000000
T0C0                              00000000
T0C1                              00000001
T0C2                              00000002
T0C3                              00000003
T0C4                              00000004
T0C5                              00000005
T0C6                              00000006
T0C7                              00000007
T0CNT                             000001A1
T0CR                              000001A0
T0DATA                            000001A3
T0DATA0                           00000000
T0DATA1                           00000001
T0DATA2                           00000002
T0DATA3                           00000003
T0DATA4                           00000004
T0DATA5                           00000005
T0DATA6                           00000006
T0DATA7                           00000007
T0IE                              00000000
T0IF                              00000000
T0LOAD                            000001A2
T0LOAD0                           00000000
T0LOAD1                           00000001
T0LOAD2                           00000002
T0LOAD3                           00000003
T0LOAD4                           00000004
T0LOAD5                           00000005
T0LOAD6                           00000006
T0LOAD7                           00000007
T0PR0                             00000000
T0PR1                             00000001
T0PR2                             00000002
T0PTS0                            00000003
T0PTS1                            00000004
T1C0                              00000000
T1C1                              00000001
T1C2                              00000002
T1C3                              00000003
T1C4                              00000004
T1C5                              00000005
T1C6                              00000006
T1C7                              00000007
T1CNT                             000001A5
T1CR                              000001A4
T1DATA                            000001A7
T1DATA0                           00000000
T1DATA1                           00000001
T1DATA2                           00000002
T1DATA3                           00000003
T1DATA4                           00000004
T1DATA5                           00000005
T1DATA6                           00000006
T1DATA7                           00000007
T1IE                              00000001
T1IF                              00000001
T1LOAD                            000001A6
T1LOAD0                           00000000
T1LOAD1                           00000001
T1LOAD2                           00000002
T1LOAD3                           00000003
T1LOAD4                           00000004
T1LOAD5                           00000005
T1LOAD6                           00000006
T1LOAD7                           00000007
T1PR0                             00000000
T1PR1                             00000001
T1PR2                             00000002
T1PTS0                            00000003
T1PTS1                            00000004
TC0EN                             00000007
TC1EN                             00000007
TO                                00000005
VRS0                              00000000
VRS1                              00000001
VRS2                              00000002
Z                                 00000002
_00106_DS_                        0000003B
_00108_DS_                        00000051
_CONFIG0                          00008000
_CONFIG1                          00008001
__32P21                           00000001
___fs2schar                       00000000
___fs2sint                        00000000
___fs2slong                       00000000
___fs2uchar                       00000000
___fs2uint                        00000000
___fs2ulong                       00000000
___fsadd                          00000000
___fsdiv                          00000000
___fseq                           00000000
___fsgt                           00000000
___fslt                           00000000
___fsmul                          00000000
___fsneq                          00000000
___fssub                          00000000
___schar2fs                       00000000
___sint2fs                        00000000
___slong2fs                       00000000
___uchar2fs                       00000000
___uint2fs                        00000000
___ulong2fs                       00000000
r0x1000                           00000003
r0x1001                           00000002
r0x1002                           00000001
r0x1003                           00000000
r0x1004                           00000004
r0x1005                           00000005
r0x1006                           00000006
r0x1007                           00000007

Errors   :     0
Warnings :     0 reported,     0 suppressed
Messages :     0 reported,     0 suppressed

