gpasm-2.0.0_beta2 (Nov  6 2017)fsadd.asm          2017-12-20  12:04:43         PAGE  1


LOC  OBJECT CODE     LINE SOURCE TEXT
  VALUE

                      00001 ;--------------------------------------------------------
                      00002 ; File Created by SN-SDCC : SinoMCU ANSI-C Compiler
                      00003 ; Version 1.1.0 (Dec 19 2017) (MINGW32)
                      00004 ; This file was generated Wed Dec 20 12:04:43 2017
                      00005 ;--------------------------------------------------------
                      00006 ; MC35 port for the RISC core
                      00007 ;--------------------------------------------------------
                      00008 ;       .file   "../../libsdcc_mc35/fsadd.c"
                      00009         list    p=7030
                      00010         radix dec
                      00011         include "7030.inc"
                      00001                 LIST
                      00002 ;mc32p7030.inc    Standard Header File, Version 1.00 by Sinomcu
                      00396                 LIST
                      00012 ;--------------------------------------------------------
                      00013 ; external declarations
                      00014 ;--------------------------------------------------------
                      00015         extern  ___uchar2fs
                      00016         extern  ___schar2fs
                      00017         extern  ___uint2fs
                      00018         extern  ___sint2fs
                      00019         extern  ___ulong2fs
                      00020         extern  ___slong2fs
                      00021         extern  ___fs2uchar
                      00022         extern  ___fs2schar
                      00023         extern  ___fs2uint
                      00024         extern  ___fs2sint
                      00025         extern  ___fs2ulong
                      00026         extern  ___fs2slong
                      00027         extern  ___fssub
                      00028         extern  ___fsmul
                      00029         extern  ___fsdiv
                      00030         extern  ___fslt
                      00031         extern  ___fseq
                      00032         extern  ___fsneq
                      00033         extern  ___fsgt
                      00034 
                      00035         extern STK06
                      00036         extern STK05
                      00037         extern STK04
                      00038         extern STK03
                      00039         extern STK02
                      00040         extern STK01
                      00041         extern STK00
                      00042 ;--------------------------------------------------------
                      00043 ; global declarations
                      00044 ;--------------------------------------------------------
                      00045         global  ___fsadd
                      00046 
                      00047 ;--------------------------------------------------------
                      00048 ; global definitions
                      00049 ;--------------------------------------------------------
                      00050 ;--------------------------------------------------------
                      00051 ; absolute symbol definitions
                      00052 ;--------------------------------------------------------
                      00053 ;--------------------------------------------------------
                      00054 ; compiler-defined variables
                      00055 ;--------------------------------------------------------
                      00056 UDL_fsadd_0     udata
0000                  00057 r0x100B res     1
0000                  00058 r0x100A res     1
0001                  00059 r0x1009 res     1
0001                  00060 r0x1008 res     1
0002                  00061 r0x100F res     1
0002                  00062 r0x100E res     1
0003                  00063 r0x100D res     1
0003                  00064 r0x100C res     1
0004                  00065 r0x1010 res     1
0004                  00066 r0x1011 res     1
0005                  00067 r0x1012 res     1
0005                  00068 r0x1013 res     1
0006                  00069 r0x1014 res     1
0006                  00070 r0x1015 res     1
0007                  00071 r0x1016 res     1
0007                  00072 r0x1017 res     1
0008                  00073 r0x1018 res     1
0008                  00074 r0x1019 res     1
0009                  00075 r0x101A res     1
0009                  00076 r0x101B res     1
000A                  00077 r0x101C res     1
000A                  00078 r0x101D res     1
000B                  00079 r0x101E res     1
000B                  00080 r0x101F res     1
000C                  00081 ___fsadd_fl1_1_22       res     4
000E                  00082 ___fsadd_fl2_1_22       res     4
                      00083 ;--------------------------------------------------------
                      00084 ; initialized data
                      00085 ;--------------------------------------------------------
                      00086 
                      00087 ;@Allocation info for local variables in function '__fsadd'
                      00088 ;@__fsadd __uchar2fs                Allocated to registers ;size:2
                      00089 ;@__fsadd __schar2fs                Allocated to registers ;size:2
                      00090 ;@__fsadd __uint2fs                 Allocated to registers ;size:2
                      00091 ;@__fsadd __sint2fs                 Allocated to registers ;size:2
                      00092 ;@__fsadd __ulong2fs                Allocated to registers ;size:2
                      00093 ;@__fsadd __slong2fs                Allocated to registers ;size:2
                      00094 ;@__fsadd __fs2uchar                Allocated to registers ;size:2
                      00095 ;@__fsadd __fs2schar                Allocated to registers ;size:2
                      00096 ;@__fsadd __fs2uint                 Allocated to registers ;size:2
                      00097 ;@__fsadd __fs2sint                 Allocated to registers ;size:2
                      00098 ;@__fsadd __fs2ulong                Allocated to registers ;size:2
                      00099 ;@__fsadd __fs2slong                Allocated to registers ;size:2
                      00100 ;@__fsadd __fssub                   Allocated to registers ;size:2
                      00101 ;@__fsadd __fsmul                   Allocated to registers ;size:2
                      00102 ;@__fsadd __fsdiv                   Allocated to registers ;size:2
                      00103 ;@__fsadd __fslt                    Allocated to registers ;size:2
                      00104 ;@__fsadd __fseq                    Allocated to registers ;size:2
                      00105 ;@__fsadd __fsneq                   Allocated to registers ;size:2
                      00106 ;@__fsadd __fsgt                    Allocated to registers ;size:2
                      00107 ;@__fsadd a2                        Allocated to registers r0x100F r0x100E r0x100D r0x100C ;size:4
                      00108 ;@__fsadd a1                        Allocated to registers r0x100B r0x100A r0x1009 r0x1008 ;size:4
                      00109 ;@__fsadd fl1                       Allocated to registers ;size:4
                      00110 ;@__fsadd fl2                       Allocated to registers ;size:4
                      00111 ;@__fsadd mant1                     Allocated to registers r0x100B r0x100A r0x1014 r0x1015 ;size:4
                      00112 ;@__fsadd mant2                     Allocated to registers r0x1016 r0x1017 r0x1018 r0x1019 ;size:4
                      00113 ;@__fsadd exp1                      Allocated to registers r0x100F r0x100E ;size:2
                      00114 ;@__fsadd exp2                      Allocated to registers r0x100D r0x100C ;size:2
                      00115 ;@__fsadd sign                      Allocated to registers r0x1010 r0x1011 r0x1012 r0x1013 ;size:4
                      00116 ;@end Allocation info for local variables in function '__fsadd';
                      00117 
                      00118 ;--------------------------------------------------------
                      00119 ; overlayable items in internal ram 
                      00120 ;--------------------------------------------------------
                      00121 ;       udata_ovr
                      00122 ;--------------------------------------------------------
                      00123 ; code
                      00124 ;--------------------------------------------------------
                      00125 code_fsadd      code
                      00126 ;***
                      00127 ;  pBlock Stats: dbName = C
                      00128 ;***
                      00129 ;entry:  ___fsadd       ;Function start
                      00130 ; 2 exit points
                      00131 ;has an exit
                      00132 ;31 compiler assigned registers:
                      00133 ;   r0x1008
                      00134 ;   STK00
                      00135 ;   r0x1009
                      00136 ;   STK01
                      00137 ;   r0x100A
                      00138 ;   STK02
                      00139 ;   r0x100B
                      00140 ;   STK03
                      00141 ;   r0x100C
                      00142 ;   STK04
                      00143 ;   r0x100D
                      00144 ;   STK05
                      00145 ;   r0x100E
                      00146 ;   STK06
                      00147 ;   r0x100F
                      00148 ;   r0x1010
                      00149 ;   r0x1011
                      00150 ;   r0x1012
                      00151 ;   r0x1013
                      00152 ;   r0x1014
                      00153 ;   r0x1015
                      00154 ;   r0x1016
                      00155 ;   r0x1017
                      00156 ;   r0x1018
                      00157 ;   r0x1019
                      00158 ;   r0x101A
                      00159 ;   r0x101B
                      00160 ;   r0x101C
                      00161 ;   r0x101D
                      00162 ;   r0x101E
                      00163 ;   r0x101F
                      00164 ;; Starting pCode block
                      00165 ;;[ICODE] ../../libsdcc_mc35/fsadd.c:53:  _entry($30) :
                      00166 ;;[ICODE] ../../libsdcc_mc35/fsadd.c:53:        proc ___fsadd [k1 lr0:0 so:0]{ ia0 a2p0 re0 rm0 nos0 ru0 dp0}{float function ( float fixed, float fixed) fixed}
0000                  00167 ___fsadd        ;Function start
                      00168 ; 2 exit points
                      00169 ;;[ICODE] ../../libsdcc_mc35/fsadd.c:53: iTemp0 [k2 lr3:7 so:0]{ ia0 a2p0 re1 rm0 nos0 ru0 dp0}{float fixed}{ sir@ ___fsadd_a1_1_21}[r0x1000 r0x1001 r0x1002 r0x1003 ] = recv ___fsadd [k1 lr0:0 so:0]{ ia0 a2p0 re0 rm0 nos0 ru0 dp0}{float function ( float fixed, float fixed) fixed}
                      00170 ;       .line   53; "../../libsdcc_mc35/fsadd.c"        float __fsadd (float a1, float a2) _FS_REENTRANT
0000   1F00           00171         MOVRA   r0x1008
0001   1E00           00172         MOVAR   STK00
0002   1F00           00173         MOVRA   r0x1009
0003   1E00           00174         MOVAR   STK01
0004   1F00           00175         MOVRA   r0x100A
0005   1E00           00176         MOVAR   STK02
0006   1F00           00177         MOVRA   (___fsadd_fl1_1_22 + 0)
0007   1F00           00178         MOVRA   r0x100B
                      00179 ;;[ICODE] ../../libsdcc_mc35/fsadd.c:53: iTemp1 [k4 lr4:9 so:0]{ ia0 a2p0 re1 rm0 nos0 ru0 dp0}{float fixed}{ sir@ ___fsadd_a2_1_21}[r0x1004 r0x1005 r0x1006 r0x1007 ] = recv ___fsadd [k1 lr0:0 so:0]{ ia0 a2p0 re0 rm0 nos0 ru0 dp0}{float function ( float fixed, float fixed) fixed}
0008   1E00           00180         MOVAR   STK03
0009   1F00           00181         MOVRA   r0x100C
000A   1E00           00182         MOVAR   STK04
000B   1F00           00183         MOVRA   r0x100D
000C   1E00           00184         MOVAR   STK05
000D   1F00           00185         MOVRA   r0x100E
000E   1E00           00186         MOVAR   STK06
000F   1F00           00187         MOVRA   (___fsadd_fl2_1_22 + 0)
0010   1F00           00188         MOVRA   r0x100F
                      00189 ;;[ICODE] ../../libsdcc_mc35/fsadd.c:58:        iTemp2 [k6 lr5:130 so:0]{ ia0 a2p0 re1 rm0 nos0 ru0 dp0}{unsigned-long-int fixed}{ sir@ ___fsadd_sign_1_22}[r0x1008 r0x1009 r0x100A r0x100B ] := 0x0 {unsigned-long-int literal}
                      00190 ;       .line   58; "../../libsdcc_mc35/fsadd.c"        unsigned long sign = 0;
0011   2B00           00191         CLRR    r0x1010
0012   2B00           00192         CLRR    r0x1011
0013   2B00           00193         CLRR    r0x1012
0014   2B00           00194         CLRR    r0x1013
                      00195 ;;[ICODE] ../../libsdcc_mc35/fsadd.c:60:        iTemp3 [k9 lr6:7 so:0]{ ia0 a2p0 re0 rm1 nos0 ru0 dp0}{volatile-float near* fixed}[remat] = &[___fsadd_fl1_1_22 [k8 lr0:0 so:0]{ ia0 a2p0 re0 rm0 nos0 ru0 dp0}{volatile-struct float_long fixed}]
                      00196 ;;[ICODE] ../../libsdcc_mc35/fsadd.c:60:        *(iTemp3 [k9 lr6:7 so:0]{ ia1 a2p0 re0 rm1 nos0 ru0 dp0}{volatile-float near* fixed}[remat]) := iTemp0 [k2 lr3:7 so:0]{ ia0 a2p0 re1 rm0 nos0 ru0 dp0}{float fixed}{ sir@ ___fsadd_a1_1_21}[r0x1000 r0x1001 r0x1002 r0x1003 ]
                      00197 ;;gen.c:6454: size=3/4, offset=0, AOP_TYPE(res)=8
                      00198 ;;117   MOVAR   r0x100B
                      00199 ;;gen.c:6454: size=2/4, offset=1, AOP_TYPE(res)=8
                      00200 ;       .line   60; "../../libsdcc_mc35/fsadd.c"        fl1.f = a1;
0015   1E00           00201         MOVAR   r0x100A
0016   1F00           00202         MOVRA   (___fsadd_fl1_1_22 + 1)
                      00203 ;;gen.c:6454: size=1/4, offset=2, AOP_TYPE(res)=8
0017   1E00           00204         MOVAR   r0x1009
0018   1F00           00205         MOVRA   (___fsadd_fl1_1_22 + 2)
                      00206 ;;gen.c:6454: size=0/4, offset=3, AOP_TYPE(res)=8
0019   1E00           00207         MOVAR   r0x1008
001A   1F00           00208         MOVRA   (___fsadd_fl1_1_22 + 3)
                      00209 ;;[ICODE] ../../libsdcc_mc35/fsadd.c:61:        iTemp5 [k13 lr8:9 so:0]{ ia0 a2p0 re0 rm1 nos0 ru0 dp0}{volatile-float near* fixed}[remat] = &[___fsadd_fl2_1_22 [k12 lr0:0 so:0]{ ia0 a2p0 re0 rm0 nos0 ru0 dp0}{volatile-struct float_long fixed}]
                      00210 ;;[ICODE] ../../libsdcc_mc35/fsadd.c:61:        *(iTemp5 [k13 lr8:9 so:0]{ ia1 a2p0 re0 rm1 nos0 ru0 dp0}{volatile-float near* fixed}[remat]) := iTemp1 [k4 lr4:9 so:0]{ ia0 a2p0 re1 rm0 nos0 ru0 dp0}{float fixed}{ sir@ ___fsadd_a2_1_21}[r0x1004 r0x1005 r0x1006 r0x1007 ]
                      00211 ;;gen.c:6454: size=3/4, offset=0, AOP_TYPE(res)=8
                      00212 ;;118   MOVAR   r0x100F
                      00213 ;;gen.c:6454: size=2/4, offset=1, AOP_TYPE(res)=8
                      00214 ;       .line   61; "../../libsdcc_mc35/fsadd.c"        fl2.f = a2;
001B   1E00           00215         MOVAR   r0x100E
001C   1F00           00216         MOVRA   (___fsadd_fl2_1_22 + 1)
                      00217 ;;gen.c:6454: size=1/4, offset=2, AOP_TYPE(res)=8
001D   1E00           00218         MOVAR   r0x100D
001E   1F00           00219         MOVRA   (___fsadd_fl2_1_22 + 2)
                      00220 ;;gen.c:6454: size=0/4, offset=3, AOP_TYPE(res)=8
001F   1E00           00221         MOVAR   r0x100C
0020   1F00           00222         MOVRA   (___fsadd_fl2_1_22 + 3)
                      00223 ;;[ICODE] ../../libsdcc_mc35/fsadd.c:64:        iTemp7 [k16 lr10:11 so:0]{ ia0 a2p0 re0 rm1 nos0 ru0 dp0}{volatile-unsigned-long-int near* fixed}[remat] = &[___fsadd_fl1_1_22 [k8 lr0:0 so:0]{ ia0 a2p0 re0 rm0 nos0 ru0 dp0}{volatile-struct float_long fixed}]
                      00224 ;;[ICODE] ../../libsdcc_mc35/fsadd.c:64:        iTemp9 [k19 lr11:12 so:0]{ ia0 a2p0 re0 rm0 nos0 ru0 dp0}{volatile-unsigned-long-int fixed}[r0x1000 r0x1001 r0x1002 r0x1003 ] = @[iTemp7 [k16 lr10:11 so:0]{ ia1 a2p0 re0 rm1 nos0 ru0 dp0}{volatile-unsigned-long-int near* fixed}[remat] + 0x0 {const-unsigned-char literal}]
                      00225 ;       .line   64; "../../libsdcc_mc35/fsadd.c"        if (!fl1.l)
0021   1E00           00226         MOVAR   (___fsadd_fl1_1_22 + 0)
0022   1F00           00227         MOVRA   r0x100B
0023   1E00           00228         MOVAR   (___fsadd_fl1_1_22 + 1)
0024   1F00           00229         MOVRA   r0x100A
0025   1E00           00230         MOVAR   (___fsadd_fl1_1_22 + 2)
0026   1F00           00231         MOVRA   r0x1009
0027   1E00           00232         MOVAR   (___fsadd_fl1_1_22 + 3)
0028   1F00           00233         MOVRA   r0x1008
                      00234 ;;[ICODE] ../../libsdcc_mc35/fsadd.c:64:        if iTemp9 [k19 lr11:12 so:0]{ ia0 a2p0 re0 rm0 nos0 ru0 dp0}{volatile-unsigned-long-int fixed}[r0x1000 r0x1001 r0x1002 r0x1003 ] != 0 goto _iffalse_0($2)
0029   1E00           00235         MOVAR   r0x100B
002A   1800           00236         ORAR    r0x100A
002B   1800           00237         ORAR    r0x1009
002C   1800           00238         ORAR    r0x1008
002D   5886           00239         JBSET   PFLAG,0
002E   8000           00240         GOTO    _00106_DS_
                      00241 ;;[ICODE] ../../libsdcc_mc35/fsadd.c:65:        iTemp10 [k20 lr13:14 so:0]{ ia0 a2p0 re0 rm1 nos0 ru0 dp0}{volatile-float near* fixed}[remat] = &[___fsadd_fl2_1_22 [k12 lr0:0 so:0]{ ia0 a2p0 re0 rm0 nos0 ru0 dp0}{volatile-struct float_long fixed}]
                      00242 ;;[ICODE] ../../libsdcc_mc35/fsadd.c:65:        iTemp12 [k23 lr14:15 so:0]{ ia0 a2p0 re0 rm0 nos0 ru1 dp0}{volatile-float fixed}[r0x1000 r0x1001 r0x1002 r0x1003 ] = @[iTemp10 [k20 lr13:14 so:0]{ ia1 a2p0 re0 rm1 nos0 ru0 dp0}{volatile-float near* fixed}[remat] + 0x0 {const-unsigned-char literal}]
                      00243 ;       .line   65; "../../libsdcc_mc35/fsadd.c"        return (fl2.f);
002F   1E00           00244         MOVAR   (___fsadd_fl2_1_22 + 0)
0030   1F00           00245         MOVRA   r0x100B
0031   1E00           00246         MOVAR   (___fsadd_fl2_1_22 + 1)
0032   1F00           00247         MOVRA   r0x100A
0033   1E00           00248         MOVAR   (___fsadd_fl2_1_22 + 2)
0034   1F00           00249         MOVRA   r0x1009
0035   1E00           00250         MOVAR   (___fsadd_fl2_1_22 + 3)
0036   1F00           00251         MOVRA   r0x1008
                      00252 ;;[ICODE] ../../libsdcc_mc35/fsadd.c:65:        ret iTemp12 [k23 lr14:15 so:0]{ ia0 a2p0 re0 rm0 nos0 ru1 dp0}{volatile-float fixed}[r0x1000 r0x1001 r0x1002 r0x1003 ]
0037   1E00           00253         MOVAR   r0x100B
0038   1F00           00254         MOVRA   STK02
0039   1E00           00255         MOVAR   r0x100A
003A   1F00           00256         MOVRA   STK01
003B   1E00           00257         MOVAR   r0x1009
003C   1F00           00258         MOVRA   STK00
003D   1E00           00259         MOVAR   r0x1008
003E   8000           00260         GOTO    _00133_DS_
                      00261 ;;[ICODE] ../../libsdcc_mc35/fsadd.c:65:  _iffalse_0($2) :
                      00262 ;;[ICODE] ../../libsdcc_mc35/fsadd.c:66:        iTemp13 [k24 lr17:18 so:0]{ ia0 a2p0 re0 rm1 nos0 ru0 dp0}{volatile-unsigned-long-int near* fixed}[remat] = &[___fsadd_fl2_1_22 [k12 lr0:0 so:0]{ ia0 a2p0 re0 rm0 nos0 ru0 dp0}{volatile-struct float_long fixed}]
                      00263 ;;[ICODE] ../../libsdcc_mc35/fsadd.c:66:        iTemp15 [k27 lr18:19 so:0]{ ia0 a2p0 re0 rm0 nos0 ru0 dp0}{volatile-unsigned-long-int fixed}[r0x1000 r0x1001 r0x1002 r0x1003 ] = @[iTemp13 [k24 lr17:18 so:0]{ ia1 a2p0 re0 rm1 nos0 ru0 dp0}{volatile-unsigned-long-int near* fixed}[remat] + 0x0 {const-unsigned-char literal}]
003F                  00264 _00106_DS_
                      00265 ;       .line   66; "../../libsdcc_mc35/fsadd.c"        if (!fl2.l)
003F   1E00           00266         MOVAR   (___fsadd_fl2_1_22 + 0)
0040   1F00           00267         MOVRA   r0x100B
0041   1E00           00268         MOVAR   (___fsadd_fl2_1_22 + 1)
0042   1F00           00269         MOVRA   r0x100A
0043   1E00           00270         MOVAR   (___fsadd_fl2_1_22 + 2)
0044   1F00           00271         MOVRA   r0x1009
0045   1E00           00272         MOVAR   (___fsadd_fl2_1_22 + 3)
0046   1F00           00273         MOVRA   r0x1008
                      00274 ;;[ICODE] ../../libsdcc_mc35/fsadd.c:66:        if iTemp15 [k27 lr18:19 so:0]{ ia0 a2p0 re0 rm0 nos0 ru0 dp0}{volatile-unsigned-long-int fixed}[r0x1000 r0x1001 r0x1002 r0x1003 ] != 0 goto _iffalse_1($4)
0047   1E00           00275         MOVAR   r0x100B
0048   1800           00276         ORAR    r0x100A
0049   1800           00277         ORAR    r0x1009
004A   1800           00278         ORAR    r0x1008
004B   5886           00279         JBSET   PFLAG,0
004C   8000           00280         GOTO    _00108_DS_
                      00281 ;;[ICODE] ../../libsdcc_mc35/fsadd.c:67:        iTemp16 [k28 lr20:21 so:0]{ ia0 a2p0 re0 rm1 nos0 ru0 dp0}{volatile-float near* fixed}[remat] = &[___fsadd_fl1_1_22 [k8 lr0:0 so:0]{ ia0 a2p0 re0 rm0 nos0 ru0 dp0}{volatile-struct float_long fixed}]
                      00282 ;;[ICODE] ../../libsdcc_mc35/fsadd.c:67:        iTemp18 [k31 lr21:22 so:0]{ ia0 a2p0 re0 rm0 nos0 ru1 dp0}{volatile-float fixed}[r0x1000 r0x1001 r0x1002 r0x1003 ] = @[iTemp16 [k28 lr20:21 so:0]{ ia1 a2p0 re0 rm1 nos0 ru0 dp0}{volatile-float near* fixed}[remat] + 0x0 {const-unsigned-char literal}]
                      00283 ;       .line   67; "../../libsdcc_mc35/fsadd.c"        return (fl1.f);
004D   1E00           00284         MOVAR   (___fsadd_fl1_1_22 + 0)
004E   1F00           00285         MOVRA   r0x100B
004F   1E00           00286         MOVAR   (___fsadd_fl1_1_22 + 1)
0050   1F00           00287         MOVRA   r0x100A
0051   1E00           00288         MOVAR   (___fsadd_fl1_1_22 + 2)
0052   1F00           00289         MOVRA   r0x1009
0053   1E00           00290         MOVAR   (___fsadd_fl1_1_22 + 3)
0054   1F00           00291         MOVRA   r0x1008
                      00292 ;;[ICODE] ../../libsdcc_mc35/fsadd.c:67:        ret iTemp18 [k31 lr21:22 so:0]{ ia0 a2p0 re0 rm0 nos0 ru1 dp0}{volatile-float fixed}[r0x1000 r0x1001 r0x1002 r0x1003 ]
0055   1E00           00293         MOVAR   r0x100B
0056   1F00           00294         MOVRA   STK02
0057   1E00           00295         MOVAR   r0x100A
0058   1F00           00296         MOVRA   STK01
0059   1E00           00297         MOVAR   r0x1009
005A   1F00           00298         MOVRA   STK00
005B   1E00           00299         MOVAR   r0x1008
005C   8000           00300         GOTO    _00133_DS_
                      00301 ;;[ICODE] ../../libsdcc_mc35/fsadd.c:67:  _iffalse_1($4) :
                      00302 ;;[ICODE] ../../libsdcc_mc35/fsadd.c:69:        iTemp20 [k34 lr24:25 so:0]{ ia0 a2p0 re0 rm1 nos0 ru0 dp0}{volatile-unsigned-long-int near* fixed}[remat] = &[___fsadd_fl1_1_22 [k8 lr0:0 so:0]{ ia0 a2p0 re0 rm0 nos0 ru0 dp0}{volatile-struct float_long fixed}]
                      00303 ;;[ICODE] ../../libsdcc_mc35/fsadd.c:69:        iTemp22 [k37 lr25:26 so:0]{ ia0 a2p0 re0 rm0 nos0 ru0 dp0}{volatile-unsigned-long-int fixed}[r0x1000 r0x1001 r0x1002 r0x1003 ] = @[iTemp20 [k34 lr24:25 so:0]{ ia1 a2p0 re0 rm1 nos0 ru0 dp0}{volatile-unsigned-long-int near* fixed}[remat] + 0x0 {const-unsigned-char literal}]
005D                  00304 _00108_DS_
                      00305 ;       .line   69; "../../libsdcc_mc35/fsadd.c"        exp1 = EXP (fl1.l);
005D   1E00           00306         MOVAR   (___fsadd_fl1_1_22 + 0)
005E   1F00           00307         MOVRA   r0x100B
005F   1E00           00308         MOVAR   (___fsadd_fl1_1_22 + 1)
0060   1F00           00309         MOVRA   r0x100A
0061   1E00           00310         MOVAR   (___fsadd_fl1_1_22 + 2)
0062   1F00           00311         MOVRA   r0x1009
0063   1E00           00312         MOVAR   (___fsadd_fl1_1_22 + 3)
0064   1F00           00313         MOVRA   r0x1008
                      00314 ;;[ICODE] ../../libsdcc_mc35/fsadd.c:69:        iTemp23 [k38 lr26:27 so:0]{ ia0 a2p0 re0 rm0 nos0 ru0 dp0}{volatile-unsigned-long-int fixed}[r0x1004 r0x1005 r0x1006 r0x1007 ] = iTemp22 [k37 lr25:26 so:0]{ ia0 a2p0 re0 rm0 nos0 ru0 dp0}{volatile-unsigned-long-int fixed}[r0x1000 r0x1001 r0x1002 r0x1003 ] >> 0x17 {const-unsigned-char literal}
0065   0A00           00315         RLAR    r0x1009
0066   0A00           00316         RLAR    r0x1008
0067   1F00           00317         MOVRA   r0x100B
0068   1F00           00318         MOVRA   r0x100F
0069   2B00           00319         CLRR    r0x100E
006A   0B00           00320         RLR     r0x100E
006B   2B00           00321         CLRR    r0x100D
006C   2B00           00322         CLRR    r0x100C
                      00323 ;;[ICODE] ../../libsdcc_mc35/fsadd.c:69:        iTemp24 [k39 lr27:28 so:0]{ ia0 a2p0 re0 rm0 nos0 ru0 dp0}{unsigned-long-int fixed}[r0x1000 r0x1001 r0x1002 r0x1003 ] = iTemp23 [k38 lr26:27 so:0]{ ia0 a2p0 re0 rm0 nos0 ru0 dp0}{volatile-unsigned-long-int fixed}[r0x1004 r0x1005 r0x1006 r0x1007 ] & 0xff {unsigned-long-int literal}
                      00324 ;;116   MOVAR   r0x100F
006D   2B00           00325         CLRR    r0x100A
006E   2B00           00326         CLRR    r0x1009
006F   2B00           00327         CLRR    r0x1008
                      00328 ;;[ICODE] ../../libsdcc_mc35/fsadd.c:69:        iTemp19 [k32 lr28:98 so:0]{ ia0 a2p0 re1 rm0 nos0 ru0 dp0}{int fixed}{ sir@ ___fsadd_exp1_1_22}[r0x1004 r0x1005 ] = (int fixed)iTemp24 [k39 lr27:28 so:0]{ ia0 a2p0 re0 rm0 nos0 ru0 dp0}{unsigned-long-int fixed}[r0x1000 r0x1001 r0x1002 r0x1003 ]
0070   1E00           00329         MOVAR   r0x100B
0071   1F00           00330         MOVRA   r0x100F
0072   2D00           00331         MOVAI   0x00
0073   1F00           00332         MOVRA   r0x100E
                      00333 ;;[ICODE] ../../libsdcc_mc35/fsadd.c:70:        iTemp27 [k43 lr30:31 so:0]{ ia0 a2p0 re0 rm1 nos0 ru0 dp0}{volatile-unsigned-long-int near* fixed}[remat] = &[___fsadd_fl2_1_22 [k12 lr0:0 so:0]{ ia0 a2p0 re0 rm0 nos0 ru0 dp0}{volatile-struct float_long fixed}]
                      00334 ;;[ICODE] ../../libsdcc_mc35/fsadd.c:70:        iTemp29 [k46 lr31:32 so:0]{ ia0 a2p0 re0 rm0 nos0 ru0 dp0}{volatile-unsigned-long-int fixed}[r0x1000 r0x1001 r0x1002 r0x1003 ] = @[iTemp27 [k43 lr30:31 so:0]{ ia1 a2p0 re0 rm1 nos0 ru0 dp0}{volatile-unsigned-long-int near* fixed}[remat] + 0x0 {const-unsigned-char literal}]
                      00335 ;       .line   70; "../../libsdcc_mc35/fsadd.c"        exp2 = EXP (fl2.l);
0074   1E00           00336         MOVAR   (___fsadd_fl2_1_22 + 0)
0075   1F00           00337         MOVRA   r0x100B
0076   1E00           00338         MOVAR   (___fsadd_fl2_1_22 + 1)
0077   1F00           00339         MOVRA   r0x100A
0078   1E00           00340         MOVAR   (___fsadd_fl2_1_22 + 2)
0079   1F00           00341         MOVRA   r0x1009
007A   1E00           00342         MOVAR   (___fsadd_fl2_1_22 + 3)
007B   1F00           00343         MOVRA   r0x1008
                      00344 ;;[ICODE] ../../libsdcc_mc35/fsadd.c:70:        iTemp30 [k47 lr32:33 so:0]{ ia0 a2p0 re0 rm0 nos0 ru0 dp0}{volatile-unsigned-long-int fixed}[r0x1006 r0x1007 r0x100C r0x100D ] = iTemp29 [k46 lr31:32 so:0]{ ia0 a2p0 re0 rm0 nos0 ru0 dp0}{volatile-unsigned-long-int fixed}[r0x1000 r0x1001 r0x1002 r0x1003 ] >> 0x17 {const-unsigned-char literal}
007C   0A00           00345         RLAR    r0x1009
007D   0A00           00346         RLAR    r0x1008
007E   1F00           00347         MOVRA   r0x100D
007F   2B00           00348         CLRR    r0x100C
0080   0B00           00349         RLR     r0x100C
0081   2B00           00350         CLRR    r0x1014
0082   2B00           00351         CLRR    r0x1015
                      00352 ;;[ICODE] ../../libsdcc_mc35/fsadd.c:70:        iTemp31 [k48 lr33:34 so:0]{ ia0 a2p0 re0 rm0 nos0 ru0 dp0}{unsigned-long-int fixed}[r0x1000 r0x1001 r0x1002 r0x1003 ] = iTemp30 [k47 lr32:33 so:0]{ ia0 a2p0 re0 rm0 nos0 ru0 dp0}{volatile-unsigned-long-int fixed}[r0x1006 r0x1007 r0x100C r0x100D ] & 0xff {unsigned-long-int literal}
0083   1E00           00353         MOVAR   r0x100D
0084   1F00           00354         MOVRA   r0x100D
0085   1F00           00355         MOVRA   r0x100B
0086   2B00           00356         CLRR    r0x100A
0087   2B00           00357         CLRR    r0x1009
0088   2B00           00358         CLRR    r0x1008
                      00359 ;;[ICODE] ../../libsdcc_mc35/fsadd.c:70:        iTemp26 [k41 lr34:84 so:0]{ ia0 a2p0 re1 rm0 nos0 ru0 dp0}{int fixed}{ sir@ ___fsadd_exp2_1_22}[r0x1006 r0x1007 ] = (int fixed)iTemp31 [k48 lr33:34 so:0]{ ia0 a2p0 re0 rm0 nos0 ru0 dp0}{unsigned-long-int fixed}[r0x1000 r0x1001 r0x1002 r0x1003 ]
                      00360 ;;115   MOVAR   r0x100B
0089   2D00           00361         MOVAI   0x00
008A   1F00           00362         MOVRA   r0x100C
                      00363 ;;[ICODE] ../../libsdcc_mc35/fsadd.c:72:        iTemp33 [k50 lr36:37 so:0]{ ia0 a2p0 re0 rm0 nos0 ru0 dp0}{int register}[r0x1000 r0x1001 ] = iTemp26 [k41 lr34:84 so:0]{ ia0 a2p0 re1 rm0 nos0 ru0 dp0}{int fixed}{ sir@ ___fsadd_exp2_1_22}[r0x1006 r0x1007 ] + 0x19 {int literal}
                      00364 ;       .line   72; "../../libsdcc_mc35/fsadd.c"        if (exp1 > exp2 + 25)
008B   2D19           00365         MOVAI   0x19
008C   1200           00366         ADDAR   r0x100D
008D   1F00           00367         MOVRA   r0x100B
008E   2B00           00368         CLRR    r0x100A
008F   0B00           00369         RLR     r0x100A
0090   1E00           00370         MOVAR   r0x100C
0091   1300           00371         ADDRA   r0x100A
                      00372 ;;[ICODE] ../../libsdcc_mc35/fsadd.c:72:        iTemp34 [k51 lr37:38 so:0]{ ia0 a2p0 re0 rm0 nos0 ru0 dp0}{char fixed} = iTemp19 [k32 lr28:98 so:0]{ ia0 a2p0 re1 rm0 nos0 ru0 dp0}{int fixed}{ sir@ ___fsadd_exp1_1_22}[r0x1004 r0x1005 ] > iTemp33 [k50 lr36:37 so:0]{ ia0 a2p0 re0 rm0 nos0 ru0 dp0}{int register}[r0x1000 r0x1001 ]
0092   1E00           00373         MOVAR   r0x100A
0093   1480           00374         ADDAI   0x80
0094   1F00           00375         MOVRA   r0x1016
0095   1E00           00376         MOVAR   r0x100E
0096   1480           00377         ADDAI   0x80
0097   2C00           00378         XCH     r0x1016
0098   2300           00379         ASUBRA  r0x1016
0099   2C00           00380         XCH     r0x1016
009A   5886           00381         JBSET   PFLAG,0
009B   8000           00382         GOTO    _00165_DS_
009C   1E00           00383         MOVAR   r0x100F
009D   2C00           00384         XCH     r0x100B
009E   2300           00385         ASUBRA  r0x100B
009F   2C00           00386         XCH     r0x100B
00A0                  00387 _00165_DS_
00A0   5286           00388         JBCLR   PFLAG,2
00A1   8000           00389         GOTO    _00110_DS_
                      00390 ;;genSkipc:3223: created from rifx:00DD608C
                      00391 ;;[ICODE] ../../libsdcc_mc35/fsadd.c:72:        if iTemp34 [k51 lr37:38 so:0]{ ia0 a2p0 re0 rm0 nos0 ru0 dp0}{char fixed} == 0 goto _iffalse_2($6)
                      00392 ;;[ICODE] ../../libsdcc_mc35/fsadd.c:73:        iTemp35 [k52 lr39:40 so:0]{ ia0 a2p0 re0 rm1 nos0 ru0 dp0}{volatile-float near* fixed}[remat] = &[___fsadd_fl1_1_22 [k8 lr0:0 so:0]{ ia0 a2p0 re0 rm0 nos0 ru0 dp0}{volatile-struct float_long fixed}]
                      00393 ;;[ICODE] ../../libsdcc_mc35/fsadd.c:73:        iTemp37 [k55 lr40:41 so:0]{ ia0 a2p0 re0 rm0 nos0 ru1 dp0}{volatile-float fixed}[r0x1000 r0x1001 r0x100C r0x100D ] = @[iTemp35 [k52 lr39:40 so:0]{ ia1 a2p0 re0 rm1 nos0 ru0 dp0}{volatile-float near* fixed}[remat] + 0x0 {const-unsigned-char literal}]
                      00394 ;       .line   73; "../../libsdcc_mc35/fsadd.c"        return (fl1.f);
00A2   1E00           00395         MOVAR   (___fsadd_fl1_1_22 + 0)
00A3   1F00           00396         MOVRA   r0x100B
00A4   1E00           00397         MOVAR   (___fsadd_fl1_1_22 + 1)
00A5   1F00           00398         MOVRA   r0x100A
00A6   1E00           00399         MOVAR   (___fsadd_fl1_1_22 + 2)
00A7   1F00           00400         MOVRA   r0x1014
00A8   1E00           00401         MOVAR   (___fsadd_fl1_1_22 + 3)
00A9   1F00           00402         MOVRA   r0x1015
                      00403 ;;[ICODE] ../../libsdcc_mc35/fsadd.c:73:        ret iTemp37 [k55 lr40:41 so:0]{ ia0 a2p0 re0 rm0 nos0 ru1 dp0}{volatile-float fixed}[r0x1000 r0x1001 r0x100C r0x100D ]
00AA   1E00           00404         MOVAR   r0x100B
00AB   1F00           00405         MOVRA   STK02
00AC   1E00           00406         MOVAR   r0x100A
00AD   1F00           00407         MOVRA   STK01
00AE   1E00           00408         MOVAR   r0x1014
00AF   1F00           00409         MOVRA   STK00
00B0   1E00           00410         MOVAR   r0x1015
00B1   8000           00411         GOTO    _00133_DS_
                      00412 ;;[ICODE] ../../libsdcc_mc35/fsadd.c:73:  _iffalse_2($6) :
                      00413 ;;[ICODE] ../../libsdcc_mc35/fsadd.c:74:        iTemp38 [k56 lr43:44 so:0]{ ia0 a2p0 re0 rm0 nos0 ru0 dp0}{int register}[r0x1000 r0x1001 ] = iTemp19 [k32 lr28:98 so:0]{ ia0 a2p0 re1 rm0 nos0 ru0 dp0}{int fixed}{ sir@ ___fsadd_exp1_1_22}[r0x1004 r0x1005 ] + 0x19 {int literal}
00B2                  00414 _00110_DS_
                      00415 ;       .line   74; "../../libsdcc_mc35/fsadd.c"        if (exp2 > exp1 + 25)
00B2   2D19           00416         MOVAI   0x19
00B3   1200           00417         ADDAR   r0x100F
00B4   1F00           00418         MOVRA   r0x100B
00B5   2B00           00419         CLRR    r0x100A
00B6   0B00           00420         RLR     r0x100A
00B7   1E00           00421         MOVAR   r0x100E
00B8   1300           00422         ADDRA   r0x100A
                      00423 ;;[ICODE] ../../libsdcc_mc35/fsadd.c:74:        iTemp39 [k57 lr44:45 so:0]{ ia0 a2p0 re0 rm0 nos0 ru0 dp0}{char fixed} = iTemp26 [k41 lr34:84 so:0]{ ia0 a2p0 re1 rm0 nos0 ru0 dp0}{int fixed}{ sir@ ___fsadd_exp2_1_22}[r0x1006 r0x1007 ] > iTemp38 [k56 lr43:44 so:0]{ ia0 a2p0 re0 rm0 nos0 ru0 dp0}{int register}[r0x1000 r0x1001 ]
00B9   1E00           00424         MOVAR   r0x100A
00BA   1480           00425         ADDAI   0x80
00BB   1F00           00426         MOVRA   r0x1016
00BC   1E00           00427         MOVAR   r0x100C
00BD   1480           00428         ADDAI   0x80
00BE   2C00           00429         XCH     r0x1016
00BF   2300           00430         ASUBRA  r0x1016
00C0   2C00           00431         XCH     r0x1016
00C1   5886           00432         JBSET   PFLAG,0
00C2   8000           00433         GOTO    _00166_DS_
00C3   1E00           00434         MOVAR   r0x100D
00C4   2C00           00435         XCH     r0x100B
00C5   2300           00436         ASUBRA  r0x100B
00C6   2C00           00437         XCH     r0x100B
00C7                  00438 _00166_DS_
00C7   5286           00439         JBCLR   PFLAG,2
00C8   8000           00440         GOTO    _00112_DS_
                      00441 ;;genSkipc:3223: created from rifx:00DD608C
                      00442 ;;[ICODE] ../../libsdcc_mc35/fsadd.c:74:        if iTemp39 [k57 lr44:45 so:0]{ ia0 a2p0 re0 rm0 nos0 ru0 dp0}{char fixed} == 0 goto _iffalse_3($8)
                      00443 ;;[ICODE] ../../libsdcc_mc35/fsadd.c:75:        iTemp40 [k58 lr46:47 so:0]{ ia0 a2p0 re0 rm1 nos0 ru0 dp0}{volatile-float near* fixed}[remat] = &[___fsadd_fl2_1_22 [k12 lr0:0 so:0]{ ia0 a2p0 re0 rm0 nos0 ru0 dp0}{volatile-struct float_long fixed}]
                      00444 ;;[ICODE] ../../libsdcc_mc35/fsadd.c:75:        iTemp42 [k61 lr47:48 so:0]{ ia0 a2p0 re0 rm0 nos0 ru1 dp0}{volatile-float fixed}[r0x1000 r0x1001 r0x100C r0x100D ] = @[iTemp40 [k58 lr46:47 so:0]{ ia1 a2p0 re0 rm1 nos0 ru0 dp0}{volatile-float near* fixed}[remat] + 0x0 {const-unsigned-char literal}]
                      00445 ;       .line   75; "../../libsdcc_mc35/fsadd.c"        return (fl2.f);
00C9   1E00           00446         MOVAR   (___fsadd_fl2_1_22 + 0)
00CA   1F00           00447         MOVRA   r0x100B
00CB   1E00           00448         MOVAR   (___fsadd_fl2_1_22 + 1)
00CC   1F00           00449         MOVRA   r0x100A
00CD   1E00           00450         MOVAR   (___fsadd_fl2_1_22 + 2)
00CE   1F00           00451         MOVRA   r0x1014
00CF   1E00           00452         MOVAR   (___fsadd_fl2_1_22 + 3)
00D0   1F00           00453         MOVRA   r0x1015
                      00454 ;;[ICODE] ../../libsdcc_mc35/fsadd.c:75:        ret iTemp42 [k61 lr47:48 so:0]{ ia0 a2p0 re0 rm0 nos0 ru1 dp0}{volatile-float fixed}[r0x1000 r0x1001 r0x100C r0x100D ]
00D1   1E00           00455         MOVAR   r0x100B
00D2   1F00           00456         MOVRA   STK02
00D3   1E00           00457         MOVAR   r0x100A
00D4   1F00           00458         MOVRA   STK01
00D5   1E00           00459         MOVAR   r0x1014
00D6   1F00           00460         MOVRA   STK00
00D7   1E00           00461         MOVAR   r0x1015
00D8   8000           00462         GOTO    _00133_DS_
                      00463 ;;[ICODE] ../../libsdcc_mc35/fsadd.c:75:  _iffalse_3($8) :
                      00464 ;;[ICODE] ../../libsdcc_mc35/fsadd.c:77:        iTemp44 [k64 lr50:51 so:0]{ ia0 a2p0 re0 rm1 nos0 ru0 dp0}{volatile-unsigned-long-int near* fixed}[remat] = &[___fsadd_fl1_1_22 [k8 lr0:0 so:0]{ ia0 a2p0 re0 rm0 nos0 ru0 dp0}{volatile-struct float_long fixed}]
                      00465 ;;[ICODE] ../../libsdcc_mc35/fsadd.c:77:        iTemp46 [k67 lr51:52 so:0]{ ia0 a2p0 re0 rm0 nos0 ru0 dp0}{volatile-unsigned-long-int fixed}[r0x1000 r0x1001 r0x100C r0x100D ] = @[iTemp44 [k64 lr50:51 so:0]{ ia1 a2p0 re0 rm1 nos0 ru0 dp0}{volatile-unsigned-long-int near* fixed}[remat] + 0x0 {const-unsigned-char literal}]
00D9                  00466 _00112_DS_
                      00467 ;       .line   77; "../../libsdcc_mc35/fsadd.c"        mant1 = MANT (fl1.l);
00D9   1E00           00468         MOVAR   (___fsadd_fl1_1_22 + 0)
00DA   1F00           00469         MOVRA   r0x100B
00DB   1E00           00470         MOVAR   (___fsadd_fl1_1_22 + 1)
00DC   1F00           00471         MOVRA   r0x100A
00DD   1E00           00472         MOVAR   (___fsadd_fl1_1_22 + 2)
00DE   1F00           00473         MOVRA   r0x1014
00DF   1E00           00474         MOVAR   (___fsadd_fl1_1_22 + 3)
00E0   1F00           00475         MOVRA   r0x1015
                      00476 ;;[ICODE] ../../libsdcc_mc35/fsadd.c:77:        iTemp47 [k68 lr52:53 so:0]{ ia0 a2p0 re0 rm0 nos0 ru0 dp0}{unsigned-long-int register}[r0x1000 r0x1001 r0x100C r0x100D ] = iTemp46 [k67 lr51:52 so:0]{ ia0 a2p0 re0 rm0 nos0 ru0 dp0}{volatile-unsigned-long-int fixed}[r0x1000 r0x1001 r0x100C r0x100D ] & 0x7fffff {unsigned-long-int literal}
00E1   4700           00477         BCLR    r0x1014,7
00E2   2B00           00478         CLRR    r0x1015
                      00479 ;;[ICODE] ../../libsdcc_mc35/fsadd.c:77:        iTemp43 [k62 lr53:131 so:0]{ ia0 a2p0 re1 rm0 nos0 ru0 dp0}{long-int fixed}{ sir@ ___fsadd_mant1_1_22}[r0x1000 r0x1001 r0x100C r0x100D ] = iTemp47 [k68 lr52:53 so:0]{ ia0 a2p0 re0 rm0 nos0 ru0 dp0}{unsigned-long-int register}[r0x1000 r0x1001 r0x100C r0x100D ] | 0x800000 {unsigned-long-int literal}
00E3   4F00           00480         BSET    r0x1014,7
                      00481 ;;[ICODE] ../../libsdcc_mc35/fsadd.c:78:        iTemp50 [k72 lr55:56 so:0]{ ia0 a2p0 re0 rm1 nos0 ru0 dp0}{volatile-unsigned-long-int near* fixed}[remat] = &[___fsadd_fl2_1_22 [k12 lr0:0 so:0]{ ia0 a2p0 re0 rm0 nos0 ru0 dp0}{volatile-struct float_long fixed}]
                      00482 ;;[ICODE] ../../libsdcc_mc35/fsadd.c:78:        iTemp52 [k75 lr56:57 so:0]{ ia0 a2p0 re0 rm0 nos0 ru0 dp0}{volatile-unsigned-long-int fixed}[r0x100E r0x100F r0x1010 r0x1011 ] = @[iTemp50 [k72 lr55:56 so:0]{ ia1 a2p0 re0 rm1 nos0 ru0 dp0}{volatile-unsigned-long-int near* fixed}[remat] + 0x0 {const-unsigned-char literal}]
                      00483 ;       .line   78; "../../libsdcc_mc35/fsadd.c"        mant2 = MANT (fl2.l);
00E4   1E00           00484         MOVAR   (___fsadd_fl2_1_22 + 0)
00E5   1F00           00485         MOVRA   r0x1016
00E6   1E00           00486         MOVAR   (___fsadd_fl2_1_22 + 1)
00E7   1F00           00487         MOVRA   r0x1017
00E8   1E00           00488         MOVAR   (___fsadd_fl2_1_22 + 2)
00E9   1F00           00489         MOVRA   r0x1018
00EA   1E00           00490         MOVAR   (___fsadd_fl2_1_22 + 3)
00EB   1F00           00491         MOVRA   r0x1019
                      00492 ;;[ICODE] ../../libsdcc_mc35/fsadd.c:78:        iTemp53 [k76 lr57:58 so:0]{ ia0 a2p0 re0 rm0 nos0 ru0 dp0}{unsigned-long-int register}[r0x100E r0x100F r0x1010 r0x1011 ] = iTemp52 [k75 lr56:57 so:0]{ ia0 a2p0 re0 rm0 nos0 ru0 dp0}{volatile-unsigned-long-int fixed}[r0x100E r0x100F r0x1010 r0x1011 ] & 0x7fffff {unsigned-long-int literal}
00EC   4700           00493         BCLR    r0x1018,7
00ED   2B00           00494         CLRR    r0x1019
                      00495 ;;[ICODE] ../../libsdcc_mc35/fsadd.c:78:        iTemp49 [k70 lr58:86 so:0]{ ia0 a2p0 re1 rm0 nos0 ru0 dp0}{long-int fixed}{ sir@ ___fsadd_mant2_1_22}[r0x100E r0x100F r0x1010 r0x1011 ] = iTemp53 [k76 lr57:58 so:0]{ ia0 a2p0 re0 rm0 nos0 ru0 dp0}{unsigned-long-int register}[r0x100E r0x100F r0x1010 r0x1011 ] | 0x800000 {unsigned-long-int literal}
00EE   4F00           00496         BSET    r0x1018,7
                      00497 ;;[ICODE] ../../libsdcc_mc35/fsadd.c:80:        iTemp55 [k78 lr60:61 so:0]{ ia0 a2p0 re0 rm1 nos0 ru0 dp0}{volatile-unsigned-long-int near* fixed}[remat] = &[___fsadd_fl1_1_22 [k8 lr0:0 so:0]{ ia0 a2p0 re0 rm0 nos0 ru0 dp0}{volatile-struct float_long fixed}]
                      00498 ;;[ICODE] ../../libsdcc_mc35/fsadd.c:80:        iTemp57 [k81 lr61:62 so:0]{ ia0 a2p0 re0 rm0 nos0 ru0 dp0}{volatile-unsigned-long-int fixed}[r0x1012 r0x1013 r0x1014 r0x1015 ] = @[iTemp55 [k78 lr60:61 so:0]{ ia1 a2p0 re0 rm1 nos0 ru0 dp0}{volatile-unsigned-long-int near* fixed}[remat] + 0x0 {const-unsigned-char literal}]
                      00499 ;       .line   80; "../../libsdcc_mc35/fsadd.c"        if (SIGN (fl1.l))
00EF   1E00           00500         MOVAR   (___fsadd_fl1_1_22 + 0)
00F0   1F00           00501         MOVRA   r0x101A
00F1   1E00           00502         MOVAR   (___fsadd_fl1_1_22 + 1)
00F2   1F00           00503         MOVRA   r0x101B
00F3   1E00           00504         MOVAR   (___fsadd_fl1_1_22 + 2)
00F4   1F00           00505         MOVRA   r0x101C
00F5   1E00           00506         MOVAR   (___fsadd_fl1_1_22 + 3)
00F6   1F00           00507         MOVRA   r0x101D
                      00508 ;;[ICODE] ../../libsdcc_mc35/fsadd.c:80:        iTemp58 [k82 lr62:63 so:0]{ ia0 a2p0 re0 rm0 nos0 ru0 dp0}{char fixed}[r0x1016 ] = gabit iTemp57 [k81 lr61:62 so:0]{ ia0 a2p0 re0 rm0 nos0 ru0 dp0}{volatile-unsigned-long-int fixed}[r0x1012 r0x1013 r0x1014 r0x1015 ]
00F7   1E00           00509         MOVAR   r0x101D
00F8   2A80           00510         ANDAI   0x80
00F9   5886           00511         JBSET   PFLAG,0
00FA   2D01           00512         MOVAI   0x01
00FB   1F00           00513         MOVRA   r0x101E
                      00514 ;;[ICODE] ../../libsdcc_mc35/fsadd.c:80:        if iTemp58 [k82 lr62:63 so:0]{ ia0 a2p0 re0 rm0 nos0 ru0 dp0}{char fixed}[r0x1016 ] == 0 goto _iffalse_4($10)
00FC   2D00           00515         MOVAI   0x00
00FD   1800           00516         ORAR    r0x101E
00FE   5086           00517         JBCLR   PFLAG,0
00FF   8000           00518         GOTO    _00114_DS_
                      00519 ;;[ICODE] ../../libsdcc_mc35/fsadd.c:81:        iTemp43 [k62 lr53:131 so:0]{ ia0 a2p0 re1 rm0 nos0 ru0 dp0}{long-int fixed}{ sir@ ___fsadd_mant1_1_22}[r0x1000 r0x1001 r0x100C r0x100D ] = - iTemp43 [k62 lr53:131 so:0]{ ia0 a2p0 re1 rm0 nos0 ru0 dp0}{long-int fixed}{ sir@ ___fsadd_mant1_1_22}[r0x1000 r0x1001 r0x100C r0x100D ]
                      00520 ;       .line   81; "../../libsdcc_mc35/fsadd.c"        mant1 = -mant1;
0100   2DFF           00521         MOVAI   0xff
0101   1C00           00522         XORRA   r0x100B
0102   2DFF           00523         MOVAI   0xff
0103   1C00           00524         XORRA   r0x100A
0104   2DFF           00525         MOVAI   0xff
0105   1C00           00526         XORRA   r0x1014
0106   2DFF           00527         MOVAI   0xff
0107   1C00           00528         XORRA   r0x1015
0108   2D01           00529         MOVAI   0x01
0109   1300           00530         ADDRA   r0x100B
010A   5086           00531         JBCLR   PFLAG,0
010B   1300           00532         ADDRA   r0x100A
010C   5086           00533         JBCLR   PFLAG,0
010D   1300           00534         ADDRA   r0x1014
010E   5086           00535         JBCLR   PFLAG,0
010F   1300           00536         ADDRA   r0x1015
                      00537 ;;[ICODE] ../../libsdcc_mc35/fsadd.c:81:  _iffalse_4($10) :
                      00538 ;;[ICODE] ../../libsdcc_mc35/fsadd.c:82:        iTemp60 [k84 lr67:68 so:0]{ ia0 a2p0 re0 rm1 nos0 ru0 dp0}{volatile-unsigned-long-int near* fixed}[remat] = &[___fsadd_fl2_1_22 [k12 lr0:0 so:0]{ ia0 a2p0 re0 rm0 nos0 ru0 dp0}{volatile-struct float_long fixed}]
                      00539 ;;[ICODE] ../../libsdcc_mc35/fsadd.c:82:        iTemp62 [k87 lr68:69 so:0]{ ia0 a2p0 re0 rm0 nos0 ru0 dp0}{volatile-unsigned-long-int fixed}[r0x1012 r0x1013 r0x1014 r0x1015 ] = @[iTemp60 [k84 lr67:68 so:0]{ ia1 a2p0 re0 rm1 nos0 ru0 dp0}{volatile-unsigned-long-int near* fixed}[remat] + 0x0 {const-unsigned-char literal}]
0110                  00540 _00114_DS_
                      00541 ;       .line   82; "../../libsdcc_mc35/fsadd.c"        if (SIGN (fl2.l))
0110   1E00           00542         MOVAR   (___fsadd_fl2_1_22 + 0)
0111   1F00           00543         MOVRA   r0x101A
0112   1E00           00544         MOVAR   (___fsadd_fl2_1_22 + 1)
0113   1F00           00545         MOVRA   r0x101B
0114   1E00           00546         MOVAR   (___fsadd_fl2_1_22 + 2)
0115   1F00           00547         MOVRA   r0x101C
0116   1E00           00548         MOVAR   (___fsadd_fl2_1_22 + 3)
0117   1F00           00549         MOVRA   r0x101D
                      00550 ;;[ICODE] ../../libsdcc_mc35/fsadd.c:82:        iTemp63 [k88 lr69:70 so:0]{ ia0 a2p0 re0 rm0 nos0 ru0 dp0}{char fixed}[r0x1016 ] = gabit iTemp62 [k87 lr68:69 so:0]{ ia0 a2p0 re0 rm0 nos0 ru0 dp0}{volatile-unsigned-long-int fixed}[r0x1012 r0x1013 r0x1014 r0x1015 ]
0118   1E00           00551         MOVAR   r0x101D
0119   2A80           00552         ANDAI   0x80
011A   5886           00553         JBSET   PFLAG,0
011B   2D01           00554         MOVAI   0x01
011C   1F00           00555         MOVRA   r0x101E
                      00556 ;;[ICODE] ../../libsdcc_mc35/fsadd.c:82:        if iTemp63 [k88 lr69:70 so:0]{ ia0 a2p0 re0 rm0 nos0 ru0 dp0}{char fixed}[r0x1016 ] == 0 goto _iffalse_5($12)
011D   2D00           00557         MOVAI   0x00
011E   1800           00558         ORAR    r0x101E
011F   5086           00559         JBCLR   PFLAG,0
0120   8000           00560         GOTO    _00116_DS_
                      00561 ;;[ICODE] ../../libsdcc_mc35/fsadd.c:83:        iTemp49 [k70 lr58:86 so:0]{ ia0 a2p0 re1 rm0 nos0 ru0 dp0}{long-int fixed}{ sir@ ___fsadd_mant2_1_22}[r0x100E r0x100F r0x1010 r0x1011 ] = - iTemp49 [k70 lr58:86 so:0]{ ia0 a2p0 re1 rm0 nos0 ru0 dp0}{long-int fixed}{ sir@ ___fsadd_mant2_1_22}[r0x100E r0x100F r0x1010 r0x1011 ]
                      00562 ;       .line   83; "../../libsdcc_mc35/fsadd.c"        mant2 = -mant2;
0121   2DFF           00563         MOVAI   0xff
0122   1C00           00564         XORRA   r0x1016
0123   2DFF           00565         MOVAI   0xff
0124   1C00           00566         XORRA   r0x1017
0125   2DFF           00567         MOVAI   0xff
0126   1C00           00568         XORRA   r0x1018
0127   2DFF           00569         MOVAI   0xff
0128   1C00           00570         XORRA   r0x1019
0129   2D01           00571         MOVAI   0x01
012A   1300           00572         ADDRA   r0x1016
012B   5086           00573         JBCLR   PFLAG,0
012C   1300           00574         ADDRA   r0x1017
012D   5086           00575         JBCLR   PFLAG,0
012E   1300           00576         ADDRA   r0x1018
012F   5086           00577         JBCLR   PFLAG,0
0130   1300           00578         ADDRA   r0x1019
                      00579 ;;[ICODE] ../../libsdcc_mc35/fsadd.c:83:  _iffalse_5($12) :
                      00580 ;;[ICODE] ../../libsdcc_mc35/fsadd.c:85:        iTemp65 [k90 lr74:75 so:0]{ ia0 a2p0 re0 rm0 nos0 ru0 dp0}{char fixed} = iTemp19 [k32 lr28:98 so:0]{ ia0 a2p0 re1 rm0 nos0 ru0 dp0}{int fixed}{ sir@ ___fsadd_exp1_1_22}[r0x1004 r0x1005 ] > iTemp26 [k41 lr34:84 so:0]{ ia0 a2p0 re1 rm0 nos0 ru0 dp0}{int fixed}{ sir@ ___fsadd_exp2_1_22}[r0x1006 r0x1007 ]
0131                  00581 _00116_DS_
                      00582 ;       .line   85; "../../libsdcc_mc35/fsadd.c"        if (exp1 > exp2)
0131   1E00           00583         MOVAR   r0x100C
0132   1480           00584         ADDAI   0x80
0133   1F00           00585         MOVRA   r0x101F
0134   1E00           00586         MOVAR   r0x100E
0135   1480           00587         ADDAI   0x80
0136   2C00           00588         XCH     r0x101F
0137   2300           00589         ASUBRA  r0x101F
0138   2C00           00590         XCH     r0x101F
0139   5886           00591         JBSET   PFLAG,0
013A   8000           00592         GOTO    _00167_DS_
013B   1E00           00593         MOVAR   r0x100F
013C   2C00           00594         XCH     r0x100D
013D   2300           00595         ASUBRA  r0x100D
013E   2C00           00596         XCH     r0x100D
013F                  00597 _00167_DS_
013F   5286           00598         JBCLR   PFLAG,2
0140   8000           00599         GOTO    _00118_DS_
                      00600 ;;genSkipc:3223: created from rifx:00DD608C
                      00601 ;;[ICODE] ../../libsdcc_mc35/fsadd.c:85:        if iTemp65 [k90 lr74:75 so:0]{ ia0 a2p0 re0 rm0 nos0 ru0 dp0}{char fixed} == 0 goto _iffalse_6($14)
                      00602 ;;[ICODE] ../../libsdcc_mc35/fsadd.c:87:        iTemp66 [k91 lr76:77 so:0]{ ia0 a2p0 re0 rm0 nos0 ru0 dp0}{int fixed}[r0x1012 r0x1013 ] = iTemp19 [k32 lr28:98 so:0]{ ia0 a2p0 re1 rm0 nos0 ru0 dp0}{int fixed}{ sir@ ___fsadd_exp1_1_22}[r0x1004 r0x1005 ] - iTemp26 [k41 lr34:84 so:0]{ ia0 a2p0 re1 rm0 nos0 ru0 dp0}{int fixed}{ sir@ ___fsadd_exp2_1_22}[r0x1006 r0x1007 ]
                      00603 ;       .line   87; "../../libsdcc_mc35/fsadd.c"        mant2 >>= exp1 - exp2;
0141   1E00           00604         MOVAR   r0x100D
0142   2C00           00605         XCH     r0x100F
0143   2300           00606         ASUBRA  r0x100F
0144   2C00           00607         XCH     r0x100F
0145   1F00           00608         MOVRA   r0x101A
0146   1E00           00609         MOVAR   r0x100C
0147   5A86           00610         JBSET   PFLAG,2
0148   1500           00611         JZAR    r0x100C
0149   0000           00612         NOP     
014A   2C00           00613         XCH     r0x100E
014B   2300           00614         ASUBRA  r0x100E
014C   2C00           00615         XCH     r0x100E
014D   1F00           00616         MOVRA   r0x101B
                      00617 ;;[ICODE] ../../libsdcc_mc35/fsadd.c:87:        iTemp49 [k70 lr58:86 so:0]{ ia0 a2p0 re1 rm0 nos0 ru0 dp0}{long-int fixed}{ sir@ ___fsadd_mant2_1_22}[r0x100E r0x100F r0x1010 r0x1011 ] = iTemp49 [k70 lr58:86 so:0]{ ia0 a2p0 re1 rm0 nos0 ru0 dp0}{long-int fixed}{ sir@ ___fsadd_mant2_1_22}[r0x100E r0x100F r0x1010 r0x1011 ] >> iTemp66 [k91 lr76:77 so:0]{ ia0 a2p0 re0 rm0 nos0 ru0 dp0}{int fixed}[r0x1012 r0x1013 ]
014E   1E00           00618         MOVAR   r0x101A
014F   5700           00619         JBCLR   r0x101A,7
0150   8000           00620         GOTO    _00170_DS_
0151   1DFF           00621         XORAI   0xff
0152   1401           00622         ADDAI   0x01
0153   5086           00623         JBCLR   PFLAG,0
0154   8000           00624         GOTO    _00169_DS_
0155                  00625 _00168_DS_
0155   4286           00626         BCLR    PFLAG,2
0156   5700           00627         JBCLR   r0x1019,7
0157   4A86           00628         BSET    PFLAG,2
0158   0900           00629         RRR     r0x1019
0159   0900           00630         RRR     r0x1018
015A   0900           00631         RRR     r0x1017
015B   0900           00632         RRR     r0x1016
015C   1401           00633         ADDAI   0x01
015D   5A86           00634         JBSET   PFLAG,2
015E   8000           00635         GOTO    _00168_DS_
015F   8000           00636         GOTO    _00169_DS_
0160                  00637 _00170_DS_
0160   4286           00638         BCLR    PFLAG,2
0161                  00639 _00171_DS_
0161   0B00           00640         RLR     r0x1016
0162   0B00           00641         RLR     r0x1017
0163   0B00           00642         RLR     r0x1018
0164   0B00           00643         RLR     r0x1019
0165   1401           00644         ADDAI   0x01
0166   5A86           00645         JBSET   PFLAG,2
0167   8000           00646         GOTO    _00171_DS_
                      00647 ;;[ICODE] ../../libsdcc_mc35/fsadd.c:87:         goto _ifend_6($15)
0168                  00648 _00169_DS_
0168   8000           00649         GOTO    _00119_DS_
                      00650 ;;[ICODE] ../../libsdcc_mc35/fsadd.c:87:  _iffalse_6($14) :
                      00651 ;;[ICODE] ../../libsdcc_mc35/fsadd.c:91:        iTemp68 [k93 lr81:82 so:0]{ ia0 a2p0 re0 rm0 nos0 ru0 dp0}{int fixed}[r0x1012 r0x1013 ] = iTemp26 [k41 lr34:84 so:0]{ ia0 a2p0 re1 rm0 nos0 ru0 dp0}{int fixed}{ sir@ ___fsadd_exp2_1_22}[r0x1006 r0x1007 ] - iTemp19 [k32 lr28:98 so:0]{ ia0 a2p0 re1 rm0 nos0 ru0 dp0}{int fixed}{ sir@ ___fsadd_exp1_1_22}[r0x1004 r0x1005 ]
0169                  00652 _00118_DS_
                      00653 ;       .line   91; "../../libsdcc_mc35/fsadd.c"        mant1 >>= exp2 - exp1;
0169   1E00           00654         MOVAR   r0x100F
016A   2C00           00655         XCH     r0x100D
016B   2300           00656         ASUBRA  r0x100D
016C   2C00           00657         XCH     r0x100D
016D   1F00           00658         MOVRA   r0x101A
016E   1E00           00659         MOVAR   r0x100E
016F   5A86           00660         JBSET   PFLAG,2
0170   1500           00661         JZAR    r0x100E
0171   0000           00662         NOP     
0172   2C00           00663         XCH     r0x100C
0173   2300           00664         ASUBRA  r0x100C
0174   2C00           00665         XCH     r0x100C
0175   1F00           00666         MOVRA   r0x101B
                      00667 ;;[ICODE] ../../libsdcc_mc35/fsadd.c:91:        iTemp43 [k62 lr53:131 so:0]{ ia0 a2p0 re1 rm0 nos0 ru0 dp0}{long-int fixed}{ sir@ ___fsadd_mant1_1_22}[r0x1000 r0x1001 r0x100C r0x100D ] = iTemp43 [k62 lr53:131 so:0]{ ia0 a2p0 re1 rm0 nos0 ru0 dp0}{long-int fixed}{ sir@ ___fsadd_mant1_1_22}[r0x1000 r0x1001 r0x100C r0x100D ] >> iTemp68 [k93 lr81:82 so:0]{ ia0 a2p0 re0 rm0 nos0 ru0 dp0}{int fixed}[r0x1012 r0x1013 ]
0176   1E00           00668         MOVAR   r0x101A
0177   5700           00669         JBCLR   r0x101A,7
0178   8000           00670         GOTO    _00174_DS_
0179   1DFF           00671         XORAI   0xff
017A   1401           00672         ADDAI   0x01
017B   5086           00673         JBCLR   PFLAG,0
017C   8000           00674         GOTO    _00173_DS_
017D                  00675 _00172_DS_
017D   4286           00676         BCLR    PFLAG,2
017E   5700           00677         JBCLR   r0x1015,7
017F   4A86           00678         BSET    PFLAG,2
0180   0900           00679         RRR     r0x1015
0181   0900           00680         RRR     r0x1014
0182   0900           00681         RRR     r0x100A
0183   0900           00682         RRR     r0x100B
0184   1401           00683         ADDAI   0x01
0185   5A86           00684         JBSET   PFLAG,2
0186   8000           00685         GOTO    _00172_DS_
0187   8000           00686         GOTO    _00173_DS_
0188                  00687 _00174_DS_
0188   4286           00688         BCLR    PFLAG,2
0189                  00689 _00175_DS_
0189   0B00           00690         RLR     r0x100B
018A   0B00           00691         RLR     r0x100A
018B   0B00           00692         RLR     r0x1014
018C   0B00           00693         RLR     r0x1015
018D   1401           00694         ADDAI   0x01
018E   5A86           00695         JBSET   PFLAG,2
018F   8000           00696         GOTO    _00175_DS_
                      00697 ;;[ICODE] ../../libsdcc_mc35/fsadd.c:92:        iTemp19 [k32 lr28:98 so:0]{ ia0 a2p0 re1 rm0 nos0 ru0 dp0}{int fixed}{ sir@ ___fsadd_exp1_1_22}[r0x1004 r0x1005 ] := iTemp26 [k41 lr34:84 so:0]{ ia0 a2p0 re1 rm0 nos0 ru0 dp0}{int fixed}{ sir@ ___fsadd_exp2_1_22}[r0x1006 r0x1007 ]
0190                  00698 _00173_DS_
                      00699 ;       .line   92; "../../libsdcc_mc35/fsadd.c"        exp1 = exp2;
0190   1E00           00700         MOVAR   r0x100D
0191   1F00           00701         MOVRA   r0x100F
0192   1E00           00702         MOVAR   r0x100C
0193   1F00           00703         MOVRA   r0x100E
                      00704 ;;[ICODE] ../../libsdcc_mc35/fsadd.c:92:  _ifend_6($15) :
                      00705 ;;[ICODE] ../../libsdcc_mc35/fsadd.c:94:        iTemp43 [k62 lr53:131 so:0]{ ia0 a2p0 re1 rm0 nos0 ru0 dp0}{long-int fixed}{ sir@ ___fsadd_mant1_1_22}[r0x1000 r0x1001 r0x100C r0x100D ] = iTemp43 [k62 lr53:131 so:0]{ ia0 a2p0 re1 rm0 nos0 ru0 dp0}{long-int fixed}{ sir@ ___fsadd_mant1_1_22}[r0x1000 r0x1001 r0x100C r0x100D ] + iTemp49 [k70 lr58:86 so:0]{ ia0 a2p0 re1 rm0 nos0 ru0 dp0}{long-int fixed}{ sir@ ___fsadd_mant2_1_22}[r0x100E r0x100F r0x1010 r0x1011 ]
0194                  00706 _00119_DS_
                      00707 ;       .line   94; "../../libsdcc_mc35/fsadd.c"        mant1 += mant2;
0194   1E00           00708         MOVAR   r0x1016
0195   1300           00709         ADDRA   r0x100B
0196   1E00           00710         MOVAR   r0x1017
0197   5286           00711         JBCLR   PFLAG,2
0198   1500           00712         JZAR    r0x1017
0199   1300           00713         ADDRA   r0x100A
019A   1E00           00714         MOVAR   r0x1018
019B   5286           00715         JBCLR   PFLAG,2
019C   1500           00716         JZAR    r0x1018
019D   1300           00717         ADDRA   r0x1014
019E   1E00           00718         MOVAR   r0x1019
019F   5286           00719         JBCLR   PFLAG,2
01A0   1500           00720         JZAR    r0x1019
01A1   1300           00721         ADDRA   r0x1015
                      00722 ;;[ICODE] ../../libsdcc_mc35/fsadd.c:96:        iTemp71 [k96 lr88:89 so:0]{ ia0 a2p0 re0 rm0 nos0 ru0 dp0}{char fixed} = iTemp43 [k62 lr53:131 so:0]{ ia0 a2p0 re1 rm0 nos0 ru0 dp0}{long-int fixed}{ sir@ ___fsadd_mant1_1_22}[r0x1000 r0x1001 r0x100C r0x100D ] < 0x0 {long-int literal}
                      00723 ;;signed compare: left < lit(0x0=0), size=4, mask=ffffffff
                      00724 ;       .line   96; "../../libsdcc_mc35/fsadd.c"        if (mant1 < 0)
01A2   4A86           00725         BSET    PFLAG,2
01A3   5F00           00726         JBSET   r0x1015,7
01A4   4286           00727         BCLR    PFLAG,2
01A5   5A86           00728         JBSET   PFLAG,2
01A6   8000           00729         GOTO    _00123_DS_
                      00730 ;;genSkipc:3223: created from rifx:00DD608C
                      00731 ;;[ICODE] ../../libsdcc_mc35/fsadd.c:96:        if iTemp71 [k96 lr88:89 so:0]{ ia0 a2p0 re0 rm0 nos0 ru0 dp0}{char fixed} == 0 goto _iffalse_8($19)
                      00732 ;;[ICODE] ../../libsdcc_mc35/fsadd.c:98:        iTemp43 [k62 lr53:131 so:0]{ ia0 a2p0 re1 rm0 nos0 ru0 dp0}{long-int fixed}{ sir@ ___fsadd_mant1_1_22}[r0x1000 r0x1001 r0x100C r0x100D ] = - iTemp43 [k62 lr53:131 so:0]{ ia0 a2p0 re1 rm0 nos0 ru0 dp0}{long-int fixed}{ sir@ ___fsadd_mant1_1_22}[r0x1000 r0x1001 r0x100C r0x100D ]
                      00733 ;       .line   98; "../../libsdcc_mc35/fsadd.c"        mant1 = -mant1;
01A7   2DFF           00734         MOVAI   0xff
01A8   1C00           00735         XORRA   r0x100B
01A9   2DFF           00736         MOVAI   0xff
01AA   1C00           00737         XORRA   r0x100A
01AB   2DFF           00738         MOVAI   0xff
01AC   1C00           00739         XORRA   r0x1014
01AD   2DFF           00740         MOVAI   0xff
01AE   1C00           00741         XORRA   r0x1015
01AF   2D01           00742         MOVAI   0x01
01B0   1300           00743         ADDRA   r0x100B
01B1   5086           00744         JBCLR   PFLAG,0
01B2   1300           00745         ADDRA   r0x100A
01B3   5086           00746         JBCLR   PFLAG,0
01B4   1300           00747         ADDRA   r0x1014
01B5   5086           00748         JBCLR   PFLAG,0
01B6   1300           00749         ADDRA   r0x1015
                      00750 ;;[ICODE] ../../libsdcc_mc35/fsadd.c:99:        iTemp2 [k6 lr5:130 so:0]{ ia0 a2p0 re1 rm0 nos0 ru0 dp0}{unsigned-long-int fixed}{ sir@ ___fsadd_sign_1_22}[r0x1008 r0x1009 r0x100A r0x100B ] := 0x80000000 {unsigned-long-int literal}
                      00751 ;       .line   99; "../../libsdcc_mc35/fsadd.c"        sign = SIGNBIT;
01B7   2B00           00752         CLRR    r0x1010
01B8   2B00           00753         CLRR    r0x1011
01B9   2B00           00754         CLRR    r0x1012
01BA   2D80           00755         MOVAI   0x80
01BB   1F00           00756         MOVRA   r0x1013
                      00757 ;;[ICODE] ../../libsdcc_mc35/fsadd.c:99:         goto preHeaderLbl0($41)
01BC   8000           00758         GOTO    _00125_DS_
                      00759 ;;[ICODE] ../../libsdcc_mc35/fsadd.c:99:  _iffalse_8($19) :
                      00760 ;;[ICODE] ../../libsdcc_mc35/fsadd.c:101:       if iTemp43 [k62 lr53:131 so:0]{ ia0 a2p0 re1 rm0 nos0 ru0 dp0}{long-int fixed}{ sir@ ___fsadd_mant1_1_22}[r0x1000 r0x1001 r0x100C r0x100D ] != 0 goto preHeaderLbl0($41)
01BD                  00761 _00123_DS_
                      00762 ;       .line   101; "../../libsdcc_mc35/fsadd.c"       else if (!mant1)
01BD   1E00           00763         MOVAR   r0x100B
01BE   1800           00764         ORAR    r0x100A
01BF   1800           00765         ORAR    r0x1014
01C0   1800           00766         ORAR    r0x1015
01C1   5886           00767         JBSET   PFLAG,0
01C2   8000           00768         GOTO    _00125_DS_
                      00769 ;;[ICODE] ../../libsdcc_mc35/fsadd.c:102:       ret 0 {float literal}
                      00770 ;       .line   102; "../../libsdcc_mc35/fsadd.c"       return (0);
01C3   2D00           00771         MOVAI   0x00
01C4   1F00           00772         MOVRA   STK02
01C5   2D00           00773         MOVAI   0x00
01C6   1F00           00774         MOVRA   STK01
01C7   2D00           00775         MOVAI   0x00
01C8   1F00           00776         MOVRA   STK00
01C9   2D00           00777         MOVAI   0x00
01CA   8000           00778         GOTO    _00133_DS_
                      00779 ;;[ICODE] ../../libsdcc_mc35/fsadd.c:105:  preHeaderLbl0($41) :
                      00780 ;;[ICODE] ../../libsdcc_mc35/fsadd.c:105:       iTemp77 [k102 lr98:109 so:0]{ ia0 a2p0 re0 rm0 nos0 ru0 dp0}{int fixed}[r0x1004 r0x1005 ] := iTemp19 [k32 lr28:98 so:0]{ ia0 a2p0 re1 rm0 nos0 ru0 dp0}{int fixed}{ sir@ ___fsadd_exp1_1_22}[r0x1004 r0x1005 ]
                      00781 ;;[ICODE] ../../libsdcc_mc35/fsadd.c:105:  _whilecontinue_0($21) :
                      00782 ;;[ICODE] ../../libsdcc_mc35/fsadd.c:105:       iTemp73 [k98 lr101:102 so:0]{ ia0 a2p0 re0 rm0 nos0 ru0 dp0}{unsigned-long-int register}[r0x1006 r0x1007 r0x100E r0x100F ] = (unsigned-long-int register)iTemp43 [k62 lr53:131 so:0]{ ia0 a2p0 re1 rm0 nos0 ru0 dp0}{long-int fixed}{ sir@ ___fsadd_mant1_1_22}[r0x1000 r0x1001 r0x100C r0x100D ]
01CB                  00783 _00125_DS_
                      00784 ;       .line   105; "../../libsdcc_mc35/fsadd.c"       while (mant1<HIDDEN) {
01CB   1E00           00785         MOVAR   r0x100B
01CC   1F00           00786         MOVRA   r0x100D
01CD   1E00           00787         MOVAR   r0x100A
01CE   1F00           00788         MOVRA   r0x100C
                      00789 ;;112   MOVAR   r0x1014
01CF   1E00           00790         MOVAR   r0x1015
01D0   1F00           00791         MOVRA   r0x1017
                      00792 ;;[ICODE] ../../libsdcc_mc35/fsadd.c:105:       iTemp74 [k99 lr102:103 so:0]{ ia0 a2p0 re0 rm0 nos0 ru0 dp0}{char fixed} = iTemp73 [k98 lr101:102 so:0]{ ia0 a2p0 re0 rm0 nos0 ru0 dp0}{unsigned-long-int register}[r0x1006 r0x1007 r0x100E r0x100F ] & 0xff800000 {const-long-int literal}
                      00793 ;;111   MOVAR   r0x1016
01D1   1E00           00794         MOVAR   r0x1014
01D2   1F00           00795         MOVRA   r0x1016
01D3   5700           00796         JBCLR   r0x1016,7
01D4   8000           00797         GOTO    _00130_DS_
01D5   1E00           00798         MOVAR   r0x1017
01D6   2AFF           00799         ANDAI   0xff
01D7   5886           00800         JBSET   PFLAG,0
01D8   8000           00801         GOTO    _00130_DS_
                      00802 ;;[ICODE] ../../libsdcc_mc35/fsadd.c:105:       if iTemp74 [k99 lr102:103 so:0]{ ia0 a2p0 re0 rm0 nos0 ru0 dp0}{char fixed} != 0 goto preHeaderLbl1($44)
                      00803 ;;[ICODE] ../../libsdcc_mc35/fsadd.c:106:       iTemp43 [k62 lr53:131 so:0]{ ia0 a2p0 re1 rm0 nos0 ru0 dp0}{long-int fixed}{ sir@ ___fsadd_mant1_1_22}[r0x1000 r0x1001 r0x100C r0x100D ] = iTemp43 [k62 lr53:131 so:0]{ ia0 a2p0 re1 rm0 nos0 ru0 dp0}{long-int fixed}{ sir@ ___fsadd_mant1_1_22}[r0x1000 r0x1001 r0x100C r0x100D ] << 0x1 {const-unsigned-char literal}
                      00804 ;       .line   106; "../../libsdcc_mc35/fsadd.c"       mant1 <<= 1;
01D9   4286           00805         BCLR    PFLAG,2
01DA   0B00           00806         RLR     r0x100B
01DB   0B00           00807         RLR     r0x100A
01DC   0B00           00808         RLR     r0x1014
01DD   0B00           00809         RLR     r0x1015
                      00810 ;;[ICODE] ../../libsdcc_mc35/fsadd.c:107:       iTemp77 [k102 lr98:109 so:0]{ ia0 a2p0 re0 rm0 nos0 ru0 dp0}{int fixed}[r0x1004 r0x1005 ] = iTemp77 [k102 lr98:109 so:0]{ ia0 a2p0 re0 rm0 nos0 ru0 dp0}{int fixed}[r0x1004 r0x1005 ] - 0x1 {const-unsigned-char literal}
                      00811 ;       .line   107; "../../libsdcc_mc35/fsadd.c"       exp1--;
01DE   2DFF           00812         MOVAI   0xff
01DF   1300           00813         ADDRA   r0x100F
01E0   5A86           00814         JBSET   PFLAG,2
01E1   2600           00815         DJZR    r0x100E
01E2   0000           00816         NOP     
                      00817 ;;[ICODE] ../../libsdcc_mc35/fsadd.c:107:        goto _whilecontinue_0($21)
01E3   8000           00818         GOTO    _00125_DS_
                      00819 ;;[ICODE] ../../libsdcc_mc35/fsadd.c:111:  preHeaderLbl1($44) :
                      00820 ;;[ICODE] ../../libsdcc_mc35/fsadd.c:111:       iTemp84 [k109 lr109:128 so:0]{ ia0 a2p0 re0 rm0 nos0 ru0 dp0}{int fixed}{ sir@ ___fsadd_exp1_1_22}[r0x1004 r0x1005 ] := iTemp77 [k102 lr98:109 so:0]{ ia0 a2p0 re0 rm0 nos0 ru0 dp0}{int fixed}[r0x1004 r0x1005 ]
                      00821 ;;[ICODE] ../../libsdcc_mc35/fsadd.c:111:  _whilecontinue_1($26) :
                      00822 ;;[ICODE] ../../libsdcc_mc35/fsadd.c:111:       iTemp78 [k103 lr112:125 so:0]{ ia0 a2p0 re0 rm0 nos0 ru0 dp0}{unsigned-long-int register}[r0x1006 r0x1007 r0x100E r0x100F ] = (unsigned-long-int register)iTemp43 [k62 lr53:131 so:0]{ ia0 a2p0 re1 rm0 nos0 ru0 dp0}{long-int fixed}{ sir@ ___fsadd_mant1_1_22}[r0x1000 r0x1001 r0x100C r0x100D ]
01E4                  00823 _00130_DS_
                      00824 ;       .line   111; "../../libsdcc_mc35/fsadd.c"       while (mant1 & 0xff000000) {
01E4   1E00           00825         MOVAR   r0x100B
01E5   1F00           00826         MOVRA   r0x100D
01E6   1E00           00827         MOVAR   r0x100A
01E7   1F00           00828         MOVRA   r0x100C
01E8   1E00           00829         MOVAR   r0x1014
01E9   1F00           00830         MOVRA   r0x1016
                      00831 ;;114   MOVAR   r0x1015
                      00832 ;;[ICODE] ../../libsdcc_mc35/fsadd.c:111:       iTemp79 [k104 lr113:114 so:0]{ ia0 a2p0 re0 rm0 nos0 ru0 dp0}{unsigned-long-int register} = iTemp78 [k103 lr112:125 so:0]{ ia0 a2p0 re0 rm0 nos0 ru0 dp0}{unsigned-long-int register}[r0x1006 r0x1007 r0x100E r0x100F ] & 0xff000000 {const-unsigned-long-int literal}
                      00833 ;;113   MOVAR   r0x1017
01EA   1E00           00834         MOVAR   r0x1015
01EB   1F00           00835         MOVRA   r0x1017
01EC   2AFF           00836         ANDAI   0xff
01ED   5086           00837         JBCLR   PFLAG,0
01EE   8000           00838         GOTO    _00132_DS_
                      00839 ;;[ICODE] ../../libsdcc_mc35/fsadd.c:111:       if iTemp79 [k104 lr113:114 so:0]{ ia0 a2p0 re0 rm0 nos0 ru0 dp0}{unsigned-long-int register} == 0 goto _whilebreak_1($28)
                      00840 ;;[ICODE] ../../libsdcc_mc35/fsadd.c:112:       iTemp80 [k105 lr115:116 so:0]{ ia0 a2p0 re0 rm0 nos0 ru0 dp0}{long-int fixed} = iTemp43 [k62 lr53:131 so:0]{ ia0 a2p0 re1 rm0 nos0 ru0 dp0}{long-int fixed}{ sir@ ___fsadd_mant1_1_22}[r0x1000 r0x1001 r0x100C r0x100D ] & 0x1 {long-int literal}
                      00841 ;       .line   112; "../../libsdcc_mc35/fsadd.c"       if (mant1&1)
01EF   5800           00842         JBSET   r0x100B,0
01F0   8000           00843         GOTO    _00129_DS_
                      00844 ;;[ICODE] ../../libsdcc_mc35/fsadd.c:112:       if iTemp80 [k105 lr115:116 so:0]{ ia0 a2p0 re0 rm0 nos0 ru0 dp0}{long-int fixed} == 0 goto _iffalse_9($25)
                      00845 ;;[ICODE] ../../libsdcc_mc35/fsadd.c:113:       iTemp43 [k62 lr53:131 so:0]{ ia0 a2p0 re1 rm0 nos0 ru0 dp0}{long-int fixed}{ sir@ ___fsadd_mant1_1_22}[r0x1000 r0x1001 r0x100C r0x100D ] = iTemp43 [k62 lr53:131 so:0]{ ia0 a2p0 re1 rm0 nos0 ru0 dp0}{long-int fixed}{ sir@ ___fsadd_mant1_1_22}[r0x1000 r0x1001 r0x100C r0x100D ] + 0x2 {long-int literal}
                      00846 ;       .line   113; "../../libsdcc_mc35/fsadd.c"       mant1 += 2;
01F1   2D02           00847         MOVAI   0x02
01F2   1300           00848         ADDRA   r0x100B
01F3   5286           00849         JBCLR   PFLAG,2
01F4   1600           00850         JZR     r0x100A
01F5   0000           00851         NOP     
01F6   5086           00852         JBCLR   PFLAG,0
01F7   1600           00853         JZR     r0x1014
01F8   0000           00854         NOP     
01F9   5086           00855         JBCLR   PFLAG,0
01FA   1600           00856         JZR     r0x1015
01FB   0000           00857         NOP     
                      00858 ;;[ICODE] ../../libsdcc_mc35/fsadd.c:113:  _iffalse_9($25) :
                      00859 ;;[ICODE] ../../libsdcc_mc35/fsadd.c:114:       iTemp43 [k62 lr53:131 so:0]{ ia0 a2p0 re1 rm0 nos0 ru0 dp0}{long-int fixed}{ sir@ ___fsadd_mant1_1_22}[r0x1000 r0x1001 r0x100C r0x100D ] = iTemp43 [k62 lr53:131 so:0]{ ia0 a2p0 re1 rm0 nos0 ru0 dp0}{long-int fixed}{ sir@ ___fsadd_mant1_1_22}[r0x1000 r0x1001 r0x100C r0x100D ] >> 0x1 {const-unsigned-char literal}
                      00860 ;;shiftRight_Left2ResultLit:5270: shCount=1, size=4, sign=1, same=1, offr=0
01FC                  00861 _00129_DS_
                      00862 ;       .line   114; "../../libsdcc_mc35/fsadd.c"       mant1 >>= 1 ;
01FC   4286           00863         BCLR    PFLAG,2
01FD   5700           00864         JBCLR   r0x1015,7
01FE   4A86           00865         BSET    PFLAG,2
01FF   0900           00866         RRR     r0x1015
0200   0900           00867         RRR     r0x1014
0201   0900           00868         RRR     r0x100A
0202   0900           00869         RRR     r0x100B
                      00870 ;;[ICODE] ../../libsdcc_mc35/fsadd.c:115:       iTemp84 [k109 lr109:128 so:0]{ ia0 a2p0 re0 rm0 nos0 ru0 dp0}{int fixed}{ sir@ ___fsadd_exp1_1_22}[r0x1004 r0x1005 ] = iTemp84 [k109 lr109:128 so:0]{ ia0 a2p0 re0 rm0 nos0 ru0 dp0}{int fixed}{ sir@ ___fsadd_exp1_1_22}[r0x1004 r0x1005 ] + 0x1 {const-unsigned-char literal}
                      00871 ;       .line   115; "../../libsdcc_mc35/fsadd.c"       exp1++;
0203   2D01           00872         MOVAI   0x01
0204   1300           00873         ADDRA   r0x100F
0205   5086           00874         JBCLR   PFLAG,0
0206   1300           00875         ADDRA   r0x100E
                      00876 ;;[ICODE] ../../libsdcc_mc35/fsadd.c:115:        goto _whilecontinue_1($26)
0207   8000           00877         GOTO    _00130_DS_
                      00878 ;;[ICODE] ../../libsdcc_mc35/fsadd.c:115:  _whilebreak_1($28) :
                      00879 ;;[ICODE] ../../libsdcc_mc35/fsadd.c:119:       iTemp43 [k62 lr53:131 so:0]{ ia0 a2p0 re1 rm0 nos0 ru0 dp0}{long-int fixed}{ sir@ ___fsadd_mant1_1_22}[r0x1000 r0x1001 r0x100C r0x100D ] = iTemp78 [k103 lr112:125 so:0]{ ia0 a2p0 re0 rm0 nos0 ru0 dp0}{unsigned-long-int register}[r0x1006 r0x1007 r0x100E r0x100F ] & 0xff7fffff {unsigned-long-int literal}
0208                  00880 _00132_DS_
                      00881 ;       .line   119; "../../libsdcc_mc35/fsadd.c"       mant1 &= ~HIDDEN;
0208   1E00           00882         MOVAR   r0x100D
0209   1F00           00883         MOVRA   r0x100B
020A   1E00           00884         MOVAR   r0x100C
020B   1F00           00885         MOVRA   r0x100A
020C   2D7F           00886         MOVAI   0x7f
020D   2800           00887         ANDAR   r0x1016
020E   1F00           00888         MOVRA   r0x1014
020F   1E00           00889         MOVAR   r0x1017
0210   1F00           00890         MOVRA   r0x1015
                      00891 ;;[ICODE] ../../libsdcc_mc35/fsadd.c:122:       iTemp87 [k112 lr127:133 so:0]{ ia0 a2p0 re0 rm1 nos0 ru0 dp0}{volatile-unsigned-long-int near* fixed}[remat] = &[___fsadd_fl1_1_22 [k8 lr0:0 so:0]{ ia0 a2p0 re0 rm0 nos0 ru0 dp0}{volatile-struct float_long fixed}]
                      00892 ;;[ICODE] ../../libsdcc_mc35/fsadd.c:122:       iTemp89 [k115 lr128:129 so:0]{ ia0 a2p0 re0 rm0 nos0 ru0 dp0}{unsigned-long-int fixed}[r0x1006 r0x1007 r0x100E r0x100F ] = (unsigned-long-int fixed)iTemp84 [k109 lr109:128 so:0]{ ia0 a2p0 re0 rm0 nos0 ru0 dp0}{int fixed}{ sir@ ___fsadd_exp1_1_22}[r0x1004 r0x1005 ]
                      00893 ;       .line   122; "../../libsdcc_mc35/fsadd.c"       fl1.l = PACK (sign, (unsigned long) exp1, mant1);
0211   1E00           00894         MOVAR   r0x100F
0212   1F00           00895         MOVRA   r0x100D
0213   1E00           00896         MOVAR   r0x100E
0214   1F00           00897         MOVRA   r0x100C
0215   2D00           00898         MOVAI   0x00
0216   5700           00899         JBCLR   r0x100C,7
0217   2DFF           00900         MOVAI   0xff
0218   1F00           00901         MOVRA   r0x1017
0219   1F00           00902         MOVRA   r0x1016
                      00903 ;;[ICODE] ../../libsdcc_mc35/fsadd.c:122:       iTemp90 [k116 lr129:130 so:0]{ ia0 a2p0 re0 rm0 nos0 ru0 dp0}{unsigned-long-int fixed}[r0x1004 r0x1005 r0x1010 r0x1011 ] = iTemp89 [k115 lr128:129 so:0]{ ia0 a2p0 re0 rm0 nos0 ru0 dp0}{unsigned-long-int fixed}[r0x1006 r0x1007 r0x100E r0x100F ] << 0x17 {const-unsigned-char literal}
021A   0800           00904         RRAR    r0x100C
021B   0800           00905         RRAR    r0x100D
021C   1F00           00906         MOVRA   r0x1019
021D   2B00           00907         CLRR    r0x1018
021E   0900           00908         RRR     r0x1018
021F   2B00           00909         CLRR    r0x100E
0220   2B00           00910         CLRR    r0x100F
                      00911 ;;[ICODE] ../../libsdcc_mc35/fsadd.c:122:       iTemp91 [k117 lr130:132 so:0]{ ia0 a2p0 re0 rm0 nos0 ru0 dp0}{unsigned-long-int fixed}[r0x1008 r0x1009 r0x100A r0x100B ] = iTemp2 [k6 lr5:130 so:0]{ ia0 a2p0 re1 rm0 nos0 ru0 dp0}{unsigned-long-int fixed}{ sir@ ___fsadd_sign_1_22}[r0x1008 r0x1009 r0x100A r0x100B ] | iTemp90 [k116 lr129:130 so:0]{ ia0 a2p0 re0 rm0 nos0 ru0 dp0}{unsigned-long-int fixed}[r0x1004 r0x1005 r0x1010 r0x1011 ]
0221   2D00           00912         MOVAI   0x00
0222   1900           00913         ORRA    r0x1010
0223   2D00           00914         MOVAI   0x00
0224   1900           00915         ORRA    r0x1011
0225   1E00           00916         MOVAR   r0x1018
0226   1900           00917         ORRA    r0x1012
0227   1E00           00918         MOVAR   r0x1019
0228   1900           00919         ORRA    r0x1013
                      00920 ;;[ICODE] ../../libsdcc_mc35/fsadd.c:122:       iTemp92 [k118 lr131:132 so:0]{ ia0 a2p0 re0 rm0 nos0 ru0 dp0}{unsigned-long-int fixed}[r0x1004 r0x1005 r0x1006 r0x1007 ] = (unsigned-long-int fixed)iTemp43 [k62 lr53:131 so:0]{ ia0 a2p0 re1 rm0 nos0 ru0 dp0}{long-int fixed}{ sir@ ___fsadd_mant1_1_22}[r0x1000 r0x1001 r0x100C r0x100D ]
                      00921 ;;102   MOVAR   r0x100B
                      00922 ;;104   MOVAR   r0x100A
                      00923 ;;106   MOVAR   r0x1014
                      00924 ;;108   MOVAR   r0x1015
                      00925 ;;[ICODE] ../../libsdcc_mc35/fsadd.c:122:       iTemp93 [k119 lr132:133 so:0]{ ia0 a2p0 re0 rm0 nos0 ru0 dp0}{unsigned-long-int fixed}[r0x1000 r0x1001 r0x100C r0x100D ] = iTemp91 [k117 lr130:132 so:0]{ ia0 a2p0 re0 rm0 nos0 ru0 dp0}{unsigned-long-int fixed}[r0x1008 r0x1009 r0x100A r0x100B ] | iTemp92 [k118 lr131:132 so:0]{ ia0 a2p0 re0 rm0 nos0 ru0 dp0}{unsigned-long-int fixed}[r0x1004 r0x1005 r0x1006 r0x1007 ]
                      00926 ;;101   MOVAR   r0x100F
0229   1E00           00927         MOVAR   r0x100B
022A   1F00           00928         MOVRA   r0x100F
022B   1800           00929         ORAR    r0x1010
022C   1F00           00930         MOVRA   (___fsadd_fl1_1_22 + 0)
022D   1F00           00931         MOVRA   r0x100B
                      00932 ;;103   MOVAR   r0x100E
022E   1E00           00933         MOVAR   r0x100A
022F   1F00           00934         MOVRA   r0x100E
0230   1800           00935         ORAR    r0x1011
0231   1F00           00936         MOVRA   (___fsadd_fl1_1_22 + 1)
0232   1F00           00937         MOVRA   r0x100A
                      00938 ;;105   MOVAR   r0x100D
0233   1E00           00939         MOVAR   r0x1014
0234   1F00           00940         MOVRA   r0x100D
0235   1800           00941         ORAR    r0x1012
0236   1F00           00942         MOVRA   (___fsadd_fl1_1_22 + 2)
0237   1F00           00943         MOVRA   r0x1014
                      00944 ;;107   MOVAR   r0x100C
0238   1E00           00945         MOVAR   r0x1015
0239   1F00           00946         MOVRA   r0x100C
023A   1800           00947         ORAR    r0x1013
023B   1F00           00948         MOVRA   (___fsadd_fl1_1_22 + 3)
023C   1F00           00949         MOVRA   r0x1015
                      00950 ;;[ICODE] ../../libsdcc_mc35/fsadd.c:122:       *(iTemp87 [k112 lr127:133 so:0]{ ia1 a2p0 re0 rm1 nos0 ru0 dp0}{volatile-unsigned-long-int near* fixed}[remat]) := iTemp93 [k119 lr132:133 so:0]{ ia0 a2p0 re0 rm0 nos0 ru0 dp0}{unsigned-long-int fixed}[r0x1000 r0x1001 r0x100C r0x100D ]
                      00951 ;;gen.c:6454: size=3/4, offset=0, AOP_TYPE(res)=8
                      00952 ;;99    MOVAR   r0x100B
                      00953 ;;gen.c:6454: size=2/4, offset=1, AOP_TYPE(res)=8
                      00954 ;;100   MOVAR   r0x100A
                      00955 ;;gen.c:6454: size=1/4, offset=2, AOP_TYPE(res)=8
                      00956 ;;109   MOVAR   r0x1014
                      00957 ;;gen.c:6454: size=0/4, offset=3, AOP_TYPE(res)=8
                      00958 ;;110   MOVAR   r0x1015
                      00959 ;;[ICODE] ../../libsdcc_mc35/fsadd.c:124:       iTemp94 [k120 lr134:135 so:0]{ ia0 a2p0 re0 rm1 nos0 ru0 dp0}{volatile-float near* fixed}[remat] = &[___fsadd_fl1_1_22 [k8 lr0:0 so:0]{ ia0 a2p0 re0 rm0 nos0 ru0 dp0}{volatile-struct float_long fixed}]
                      00960 ;;[ICODE] ../../libsdcc_mc35/fsadd.c:124:       iTemp96 [k123 lr135:136 so:0]{ ia0 a2p0 re0 rm0 nos0 ru1 dp0}{volatile-float fixed}[r0x1000 r0x1001 r0x1004 r0x1005 ] = @[iTemp94 [k120 lr134:135 so:0]{ ia1 a2p0 re0 rm1 nos0 ru0 dp0}{volatile-float near* fixed}[remat] + 0x0 {const-unsigned-char literal}]
                      00961 ;       .line   124; "../../libsdcc_mc35/fsadd.c"       return (fl1.f);
023D   1E00           00962         MOVAR   (___fsadd_fl1_1_22 + 0)
023E   1F00           00963         MOVRA   r0x100B
023F   1E00           00964         MOVAR   (___fsadd_fl1_1_22 + 1)
0240   1F00           00965         MOVRA   r0x100A
0241   1E00           00966         MOVAR   (___fsadd_fl1_1_22 + 2)
0242   1F00           00967         MOVRA   r0x100F
0243   1E00           00968         MOVAR   (___fsadd_fl1_1_22 + 3)
0244   1F00           00969         MOVRA   r0x100E
                      00970 ;;[ICODE] ../../libsdcc_mc35/fsadd.c:124:       ret iTemp96 [k123 lr135:136 so:0]{ ia0 a2p0 re0 rm0 nos0 ru1 dp0}{volatile-float fixed}[r0x1000 r0x1001 r0x1004 r0x1005 ]
0245   1E00           00971         MOVAR   r0x100B
0246   1F00           00972         MOVRA   STK02
0247   1E00           00973         MOVAR   r0x100A
0248   1F00           00974         MOVRA   STK01
0249   1E00           00975         MOVAR   r0x100F
024A   1F00           00976         MOVRA   STK00
024B   1E00           00977         MOVAR   r0x100E
                      00978 ;;[ICODE] ../../libsdcc_mc35/fsadd.c:124:  _return($29) :
                      00979 ;;[ICODE] ../../libsdcc_mc35/fsadd.c:124:       eproc ___fsadd [k1 lr0:0 so:0]{ ia0 a2p0 re0 rm0 nos0 ru0 dp0}{float function ( float fixed, float fixed) fixed}
024C                  00980 _00133_DS_
024C   0E00           00981         RETURN  
                      00982 ; exit point of ___fsadd
                      00983 
                      00984 
                      00985 ;       code size estimation:
                      00986 ;         589+    0 =   589 instructions ( 1178 byte)
                      00987 
                      00988         end
gpasm-2.0.0_beta2 (Nov  6 2017)fsadd.asm          2017-12-20  12:04:43         PAGE  2


SYMBOL TABLE
  LABEL                             VALUE

ADCHS0                            00000000
ADCHS1                            00000001
ADCHS2                            00000002
ADCKS0                            00000004
ADCKS1                            00000006
ADCR                              000000B1
ADEOC                             00000005
ADIE                              00000007
ADIF                              00000007
ADON                              00000007
ADR0                              00000000
ADR1                              00000001
ADR10                             00000006
ADR11                             00000007
ADR2                              00000002
ADR3                              00000003
ADR4                              00000000
ADR5                              00000001
ADR6                              00000002
ADR7                              00000003
ADR8                              00000004
ADR9                              00000005
ADRH                              000000B2
ADRL                              000000B3
ADST                              00000006
ANSEL                             000000AE
BUZ0OE                            00000001
BUZ1OE                            00000001
C                                 00000002
CLKS                              00000002
CPUM0                             00000003
CPUM1                             00000004
DC                                00000001
FSR0                              00000083
FSR00                             00000000
FSR01                             00000001
FSR02                             00000002
FSR03                             00000003
FSR04                             00000004
FSR05                             00000005
FSR06                             00000006
FSR07                             00000007
FSR1                              00000084
FSR10                             00000000
FSR11                             00000001
FSR12                             00000002
FSR13                             00000003
FSR14                             00000004
FSR15                             00000005
FSR16                             00000006
FSR17                             00000007
GCHS                              00000004
GIE                               00000007
HIBYTE                            00000082
HIBYTE0                           00000000
HIBYTE1                           00000001
HIBYTE2                           00000002
HIBYTE3                           00000003
HIBYTE4                           00000004
HIBYTE5                           00000005
HIBYTE6                           00000006
HIBYTE7                           00000007
HOFF                              00000001
INDF                              000000E7
INDF0                             00000000
INDF1                             00000001
INDF2                             00000002
INDF3                             00000003
INDF4                             00000004
INDF5                             00000005
INDF6                             00000006
INDF7                             00000007
INT0IE                            00000000
INT0IF                            00000000
INT1IE                            00000001
INT1IF                            00000001
INTE                              000000C9
INTF                              000000C8
IOP0                              000000D0
IOP4                              000000D4
IOP5                              000000D5
LVD24                             00000004
LVD36                             00000005
MINT00                            00000003
MINT01                            00000004
NPD                               00000006
NT0                               00000007
OEP0                              000000B8
OEP4                              000000C4
OEP5                              000000C5
OSCM                              000000CA
P00D                              00000000
P00OE                             00000000
P00PU                             00000000
P01D                              00000001
P01OE                             00000001
P01PU                             00000001
P02D                              00000002
P02OE                             00000002
P02PU                             00000002
P03D                              00000003
P03OE                             00000003
P03PU                             00000003
P04D                              00000004
P40ANS                            00000000
P40D                              00000000
P40OE                             00000000
P40PU                             00000000
P41ANS                            00000001
P41D                              00000001
P41OE                             00000001
P41PU                             00000001
P42ANS                            00000002
P42D                              00000002
P42OE                             00000002
P42PU                             00000002
P43ANS                            00000003
P43D                              00000003
P43OE                             00000003
P43PU                             00000003
P44ANS                            00000004
P44D                              00000004
P44OE                             00000004
P44PU                             00000004
P53D                              00000003
P53OE                             00000003
P53PU                             00000003
P54D                              00000004
P54OE                             00000004
P54PU                             00000004
PC0                               00000000
PC1                               00000001
PC2                               00000002
PC3                               00000003
PC4                               00000004
PC5                               00000005
PC6                               00000006
PC7                               00000007
PC8                               00000000
PC9                               00000001
PCH                               000000CF
PCL                               000000CE
PEDGE                             000000BF
PFLAG                             00000086
PUP0                              000000E0
PUP4                              000000E4
PUP5                              000000E5
PWM0OE                            00000000
PWM1OE                            00000000
STK00                             00000000
STK01                             00000000
STK02                             00000000
STK03                             00000000
STK04                             00000000
STK05                             00000000
STK06                             00000000
STK0H                             000000FF
STK0L                             000000FE
STK1H                             000000FD
STK1L                             000000FC
STK2H                             000000FB
STK2L                             000000FA
STK3H                             000000F9
STK3L                             000000F8
STKP                              000000DF
STKP0                             00000000
STKP1                             00000001
STKP2                             00000002
T0ALOAD                           00000002
T0C                               000000DB
T0C0                              00000000
T0C1                              00000001
T0C2                              00000002
T0C3                              00000003
T0C4                              00000004
T0C5                              00000005
T0C6                              00000006
T0C7                              00000007
T0CR                              000000DA
T0D                               000000CD
T0D0                              00000000
T0D1                              00000001
T0D2                              00000002
T0D3                              00000003
T0D4                              00000004
T0D5                              00000005
T0D6                              00000006
T0D7                              00000007
T0GE                              00000001
T0IE                              00000005
T0IF                              00000005
T0PR0                             00000004
T0PR1                             00000005
T0PR2                             00000006
T0PTS                             00000003
T0PTSX                            00000002
T1ALOAD                           00000002
T1C                               000000DD
T1C0                              00000000
T1C1                              00000001
T1C2                              00000002
T1C3                              00000003
T1C4                              00000004
T1C5                              00000005
T1C6                              00000006
T1C7                              00000007
T1CR                              000000DC
T1D                               000000DE
T1D0                              00000000
T1D1                              00000001
T1D2                              00000002
T1D3                              00000003
T1D4                              00000004
T1D5                              00000005
T1D6                              00000006
T1D7                              00000007
T1IE                              00000006
T1IF                              00000006
T1PR0                             00000004
T1PR1                             00000005
T1PR2                             00000006
T1PTS                             00000003
T1PTSX                            00000003
TC0EN                             00000007
TC1EN                             00000007
TXCR                              000000D8
VREF                              000000AF
VREFS                             00000007
VRS0                              00000000
VRS1                              00000001
WDTR                              000000CC
WDTR0                             00000000
WDTR1                             00000001
WDTR2                             00000002
WDTR3                             00000003
WDTR4                             00000004
WDTR5                             00000005
WDTR6                             00000006
WDTR7                             00000007
Z                                 00000000
_00106_DS_                        0000003F
_00108_DS_                        0000005D
_00110_DS_                        000000B2
_00112_DS_                        000000D9
_00114_DS_                        00000110
_00116_DS_                        00000131
_00118_DS_                        00000169
_00119_DS_                        00000194
_00123_DS_                        000001BD
_00125_DS_                        000001CB
_00129_DS_                        000001FC
_00130_DS_                        000001E4
_00132_DS_                        00000208
_00133_DS_                        0000024C
_00165_DS_                        000000A0
_00166_DS_                        000000C7
_00167_DS_                        0000013F
_00168_DS_                        00000155
_00169_DS_                        00000168
_00170_DS_                        00000160
_00171_DS_                        00000161
_00172_DS_                        0000017D
_00173_DS_                        00000190
_00174_DS_                        00000188
_00175_DS_                        00000189
_CONFIG0                          00008000
_CONFIG1                          00008001
__32P7030                         00000001
___fs2schar                       00000000
___fs2sint                        00000000
___fs2slong                       00000000
___fs2uchar                       00000000
___fs2uint                        00000000
___fs2ulong                       00000000
___fsadd                          00000000
___fsadd_fl1_1_22                 00000018
___fsadd_fl2_1_22                 0000001C
___fsdiv                          00000000
___fseq                           00000000
___fsgt                           00000000
___fslt                           00000000
___fsmul                          00000000
___fsneq                          00000000
___fssub                          00000000
___schar2fs                       00000000
___sint2fs                        00000000
___slong2fs                       00000000
___uchar2fs                       00000000
___uint2fs                        00000000
___ulong2fs                       00000000
r0x1008                           00000003
r0x1009                           00000002
r0x100A                           00000001
r0x100B                           00000000
r0x100C                           00000007
r0x100D                           00000006
r0x100E                           00000005
r0x100F                           00000004
r0x1010                           00000008
r0x1011                           00000009
r0x1012                           0000000A
r0x1013                           0000000B
r0x1014                           0000000C
r0x1015                           0000000D
r0x1016                           0000000E
r0x1017                           0000000F
r0x1018                           00000010
r0x1019                           00000011
r0x101A                           00000012
r0x101B                           00000013
r0x101C                           00000014
r0x101D                           00000015
r0x101E                           00000016
r0x101F                           00000017

Errors   :     0
Warnings :     0 reported,     0 suppressed
Messages :     0 reported,     0 suppressed

