gpasm-2.0.0_beta2 (Nov  6 2017)_modsint.asm       2018-1-11  15:10:27          PAGE  1


LOC  OBJECT CODE     LINE SOURCE TEXT
  VALUE

                      00001 ;--------------------------------------------------------
                      00002 ; File Created by SN-SDCC : SinoMCU ANSI-C Compiler
                      00003 ; Version 1.1.0 (Dec 19 2017) (MINGW32)
                      00004 ; This file was generated Thu Jan 11 15:10:27 2018
                      00005 ;--------------------------------------------------------
                      00006 ; MC32 port for the RISC core
                      00007 ;--------------------------------------------------------
                      00008 ;       .file   "../../libsdcc_mc32l/_modsint.c"
                      00009         list    p=3316
                      00010         radix dec
                      00011         include "3316.inc"
                      00001                 LIST
                      00002 ;mc32p5314.inc    Standard Header File, Version 1.00 by Sinomcu
                      00772                 LIST
                      00012 ;--------------------------------------------------------
                      00013 ; external declarations
                      00014 ;--------------------------------------------------------
                      00015         extern  __moduint
                      00016 
                      00017         extern STK06
                      00018         extern STK05
                      00019         extern STK04
                      00020         extern STK03
                      00021         extern STK02
                      00022         extern STK01
                      00023         extern STK00
                      00024 ;--------------------------------------------------------
                      00025 ; global declarations
                      00026 ;--------------------------------------------------------
                      00027         global  __modsint
                      00028 
                      00029 ;--------------------------------------------------------
                      00030 ; global definitions
                      00031 ;--------------------------------------------------------
                      00032 ;--------------------------------------------------------
                      00033 ; absolute symbol definitions
                      00034 ;--------------------------------------------------------
                      00035 ;--------------------------------------------------------
                      00036 ; compiler-defined variables
                      00037 ;--------------------------------------------------------
                      00038 UDL__modsint_0  udata
0000                  00039 r0x1001 res     1
0000                  00040 r0x1000 res     1
0001                  00041 r0x1003 res     1
0001                  00042 r0x1002 res     1
0002                  00043 r0x1004 res     1
0002                  00044 r0x1005 res     1
0003                  00045 r0x1006 res     1
0003                  00046 r0x1007 res     1
0004                  00047 r0x1008 res     1
0004                  00048 r0x1009 res     1
                      00049 ;--------------------------------------------------------
                      00050 ; initialized data
                      00051 ;--------------------------------------------------------
                      00052 
                      00053 ;@Allocation info for local variables in function '_modsint'
                      00054 ;@_modsint _moduint                  Allocated to registers ;size:2
                      00055 ;@_modsint b                         Allocated to registers r0x1003 r0x1002 ;size:2
                      00056 ;@_modsint a                         Allocated to registers r0x1001 r0x1000 ;size:2
                      00057 ;@end Allocation info for local variables in function '_modsint';
                      00058 
                      00059 ;--------------------------------------------------------
                      00060 ; overlayable items in internal ram 
                      00061 ;--------------------------------------------------------
                      00062 ;       udata_ovr
                      00063 ;--------------------------------------------------------
                      00064 ; code
                      00065 ;--------------------------------------------------------
                      00066 code__modsint   code
                      00067 ;***
                      00068 ;  pBlock Stats: dbName = C
                      00069 ;***
                      00070 ;entry:  __modsint      ;Function start
                      00071 ; 2 exit points
                      00072 ;has an exit
                      00073 ;functions called:
                      00074 ;   __moduint
                      00075 ;   __moduint
                      00076 ;   __moduint
                      00077 ;   __moduint
                      00078 ;   __moduint
                      00079 ;   __moduint
                      00080 ;   __moduint
                      00081 ;   __moduint
                      00082 ;13 compiler assigned registers:
                      00083 ;   r0x1000
                      00084 ;   STK00
                      00085 ;   r0x1001
                      00086 ;   STK01
                      00087 ;   r0x1002
                      00088 ;   STK02
                      00089 ;   r0x1003
                      00090 ;   r0x1004
                      00091 ;   r0x1005
                      00092 ;   r0x1006
                      00093 ;   r0x1007
                      00094 ;   r0x1008
                      00095 ;   r0x1009
                      00096 ;; Starting pCode block
                      00097 ;;[ICODE] ../../libsdcc_mc32l/_modsint.c:32:  _entry($11) :
                      00098 ;;[ICODE] ../../libsdcc_mc32l/_modsint.c:32:    proc __modsint [k1 lr0:0 so:0]{ ia0 a2p0 re0 rm0 nos0 ru0 dp0}{int function ( int fixed, int fixed) fixed}
0000                  00099 __modsint       ;Function start
                      00100 ; 2 exit points
                      00101 ;;[ICODE] ../../libsdcc_mc32l/_modsint.c:32: iTemp0 [k2 lr3:36 so:0]{ ia0 a2p0 re1 rm0 nos0 ru0 dp0}{int fixed}{ sir@ __modsint_a_1_2}[r0x1000 r0x1001 ] = recv __modsint [k1 lr0:0 so:0]{ ia0 a2p0 re0 rm0 nos0 ru0 dp0}{int function ( int fixed, int fixed) fixed}
                      00102 ;       .line   32; "../../libsdcc_mc32l/_modsint.c"    _modsint (int a, int b)
0000   5600           00103         MOVRA   r0x1000
0001   5800           00104         MOVAR   STK00
0002   5600           00105         MOVRA   r0x1001
                      00106 ;;[ICODE] ../../libsdcc_mc32l/_modsint.c:32: iTemp1 [k4 lr4:37 so:0]{ ia0 a2p0 re1 rm0 nos0 ru0 dp0}{int fixed}{ sir@ __modsint_b_1_2}[r0x1002 r0x1003 ] = recv __modsint [k1 lr0:0 so:0]{ ia0 a2p0 re0 rm0 nos0 ru0 dp0}{int function ( int fixed, int fixed) fixed}
0003   5800           00107         MOVAR   STK01
0004   5600           00108         MOVRA   r0x1002
0005   5800           00109         MOVAR   STK02
0006   5600           00110         MOVRA   r0x1003
                      00111 ;;[ICODE] ../../libsdcc_mc32l/_modsint.c:34:    iTemp2 [k6 lr5:6 so:0]{ ia0 a2p0 re0 rm0 nos0 ru0 dp0}{char fixed} = iTemp0 [k2 lr3:36 so:0]{ ia0 a2p0 re1 rm0 nos0 ru0 dp0}{int fixed}{ sir@ __modsint_a_1_2}[r0x1000 r0x1001 ] < 0x0 {int literal}
                      00112 ;;signed compare: left < lit(0x0=0), size=2, mask=ffff
                      00113 ;       .line   34; "../../libsdcc_mc32l/_modsint.c"    if (a < 0) {
0007   C1B7           00114         BSET    PFLAG,0
0008   EE00           00115         JBSET   r0x1000,7
0009   D1B7           00116         BCLR    PFLAG,0
000A   E1B7           00117         JBSET   PFLAG,0
000B   2000 2300      00118         LGOTO   _00112_DS_
                      00119 ;;genSkipc:3195: created from rifx:00DD608C
                      00120 ;;[ICODE] ../../libsdcc_mc32l/_modsint.c:34:    if iTemp2 [k6 lr5:6 so:0]{ ia0 a2p0 re0 rm0 nos0 ru0 dp0}{char fixed} == 0 goto _iffalse_2($8)
                      00121 ;;[ICODE] ../../libsdcc_mc32l/_modsint.c:35:    iTemp3 [k7 lr7:8 so:0]{ ia0 a2p0 re0 rm0 nos0 ru0 dp0}{char fixed} = iTemp1 [k4 lr4:37 so:0]{ ia0 a2p0 re1 rm0 nos0 ru0 dp0}{int fixed}{ sir@ __modsint_b_1_2}[r0x1002 r0x1003 ] < 0x0 {int literal}
                      00122 ;;signed compare: left < lit(0x0=0), size=2, mask=ffff
                      00123 ;       .line   35; "../../libsdcc_mc32l/_modsint.c"    if (b < 0)
000D   C1B7           00124         BSET    PFLAG,0
000E   EE00           00125         JBSET   r0x1002,7
000F   D1B7           00126         BCLR    PFLAG,0
0010   E1B7           00127         JBSET   PFLAG,0
0011   2000 2300      00128         LGOTO   _00106_DS_
                      00129 ;;genSkipc:3195: created from rifx:00DD608C
                      00130 ;;[ICODE] ../../libsdcc_mc32l/_modsint.c:35:    if iTemp3 [k7 lr7:8 so:0]{ ia0 a2p0 re0 rm0 nos0 ru0 dp0}{char fixed} == 0 goto _iffalse_0($2)
                      00131 ;;[ICODE] ../../libsdcc_mc32l/_modsint.c:36:    iTemp4 [k9 lr9:10 so:0]{ ia0 a2p0 re0 rm0 nos0 ru0 dp0}{int fixed}[r0x1004 r0x1005 ] = - iTemp0 [k2 lr3:36 so:0]{ ia0 a2p0 re1 rm0 nos0 ru0 dp0}{int fixed}{ sir@ __modsint_a_1_2}[r0x1000 r0x1001 ]
                      00132 ;       .line   36; "../../libsdcc_mc32l/_modsint.c"    return _moduint ((unsigned int)-a, (unsigned int)-b);
0013   7000           00133         COMAR   r0x1001
0014   5600           00134         MOVRA   r0x1004
0015   7000           00135         COMAR   r0x1000
0016   5600           00136         MOVRA   r0x1005
0017   6600           00137         INCR    r0x1004
0018   F5B7           00138         JBCLR   PFLAG,2
0019   6600           00139         INCR    r0x1005
                      00140 ;;[ICODE] ../../libsdcc_mc32l/_modsint.c:36:    iTemp5 [k10 lr10:14 so:0]{ ia0 a2p0 re0 rm0 nos0 ru1 dp0}{unsigned-int fixed}[r0x1006 r0x1007 ] = (unsigned-int fixed)iTemp4 [k9 lr9:10 so:0]{ ia0 a2p0 re0 rm0 nos0 ru0 dp0}{int fixed}[r0x1004 r0x1005 ]
001A   5800           00141         MOVAR   r0x1004
001B   5600           00142         MOVRA   r0x1006
001C   5800           00143         MOVAR   r0x1005
001D   5600           00144         MOVRA   r0x1007
                      00145 ;;[ICODE] ../../libsdcc_mc32l/_modsint.c:36:    iTemp6 [k11 lr11:12 so:0]{ ia0 a2p0 re0 rm0 nos0 ru0 dp0}{int fixed}[r0x1004 r0x1005 ] = - iTemp1 [k4 lr4:37 so:0]{ ia0 a2p0 re1 rm0 nos0 ru0 dp0}{int fixed}{ sir@ __modsint_b_1_2}[r0x1002 r0x1003 ]
001E   7000           00146         COMAR   r0x1003
001F   5600           00147         MOVRA   r0x1004
0020   7000           00148         COMAR   r0x1002
0021   5600           00149         MOVRA   r0x1005
0022   6600           00150         INCR    r0x1004
0023   F5B7           00151         JBCLR   PFLAG,2
0024   6600           00152         INCR    r0x1005
                      00153 ;;[ICODE] ../../libsdcc_mc32l/_modsint.c:36:    iTemp7 [k12 lr12:14 so:0]{ ia0 a2p0 re0 rm0 nos0 ru0 dp0}{unsigned-int fixed}[r0x1008 r0x1009 ] = (unsigned-int fixed)iTemp6 [k11 lr11:12 so:0]{ ia0 a2p0 re0 rm0 nos0 ru0 dp0}{int fixed}[r0x1004 r0x1005 ]
                      00154 ;;112   MOVAR   r0x1004
                      00155 ;;114   MOVAR   r0x1005
                      00156 ;;[ICODE] ../../libsdcc_mc32l/_modsint.c:36:    send iTemp5 [k10 lr10:14 so:0]{ ia0 a2p0 re0 rm0 nos0 ru1 dp0}{unsigned-int fixed}[r0x1006 r0x1007 ]{argreg = 1}
                      00157 ;;[ICODE] ../../libsdcc_mc32l/_modsint.c:36:    send iTemp7 [k12 lr12:14 so:0]{ ia0 a2p0 re0 rm0 nos0 ru0 dp0}{unsigned-int fixed}[r0x1008 r0x1009 ]{argreg = 1}
                      00158 ;;[ICODE] ../../libsdcc_mc32l/_modsint.c:36:    iTemp8 [k15 lr15:16 so:0]{ ia0 a2p0 re0 rm0 nos0 ru1 dp0}{unsigned-int fixed}[r0x1004 r0x1005 ] = call __moduint [k8 lr0:0 so:0]{ ia0 a2p0 re0 rm0 nos0 ru0 dp0}{unsigned-int function ( unsigned-int fixed, unsigned-int fixed) fixed}
                      00159 ;;111   MOVAR   r0x1008
0025   5800           00160         MOVAR   r0x1004
0026   5600           00161         MOVRA   r0x1008
0027   5600           00162         MOVRA   STK02
                      00163 ;;113   MOVAR   r0x1009
0028   5800           00164         MOVAR   r0x1005
0029   5600           00165         MOVRA   r0x1009
002A   5600           00166         MOVRA   STK01
002B   5800           00167         MOVAR   r0x1006
002C   5600           00168         MOVRA   STK00
002D   5800           00169         MOVAR   r0x1007
002E   2100 2300      00170         LCALL   __moduint
0030   5600           00171         MOVRA   r0x1005
0031   5800           00172         MOVAR   STK00
0032   5600           00173         MOVRA   r0x1004
                      00174 ;;[ICODE] ../../libsdcc_mc32l/_modsint.c:36:    ret iTemp8 [k15 lr15:16 so:0]{ ia0 a2p0 re0 rm0 nos0 ru1 dp0}{unsigned-int fixed}[r0x1004 r0x1005 ]
0033   5800           00175         MOVAR   r0x1004
0034   5600           00176         MOVRA   STK00
0035   5800           00177         MOVAR   r0x1005
0036   2000 2300      00178         LGOTO   _00114_DS_
                      00179 ;;[ICODE] ../../libsdcc_mc32l/_modsint.c:36:  _iffalse_0($2) :
                      00180 ;;[ICODE] ../../libsdcc_mc32l/_modsint.c:38:    iTemp9 [k16 lr18:19 so:0]{ ia0 a2p0 re0 rm0 nos0 ru0 dp0}{int fixed}[r0x1004 r0x1005 ] = - iTemp0 [k2 lr3:36 so:0]{ ia0 a2p0 re1 rm0 nos0 ru0 dp0}{int fixed}{ sir@ __modsint_a_1_2}[r0x1000 r0x1001 ]
0038                  00181 _00106_DS_
                      00182 ;       .line   38; "../../libsdcc_mc32l/_modsint.c"    return _moduint ((unsigned int)-a, (unsigned int)b);
0038   7000           00183         COMAR   r0x1001
0039   5600           00184         MOVRA   r0x1004
003A   7000           00185         COMAR   r0x1000
003B   5600           00186         MOVRA   r0x1005
003C   6600           00187         INCR    r0x1004
003D   F5B7           00188         JBCLR   PFLAG,2
003E   6600           00189         INCR    r0x1005
                      00190 ;;[ICODE] ../../libsdcc_mc32l/_modsint.c:38:    iTemp10 [k17 lr19:22 so:0]{ ia0 a2p0 re0 rm0 nos0 ru1 dp0}{unsigned-int fixed}[r0x1006 r0x1007 ] = (unsigned-int fixed)iTemp9 [k16 lr18:19 so:0]{ ia0 a2p0 re0 rm0 nos0 ru0 dp0}{int fixed}[r0x1004 r0x1005 ]
003F   5800           00191         MOVAR   r0x1004
0040   5600           00192         MOVRA   r0x1006
0041   5800           00193         MOVAR   r0x1005
0042   5600           00194         MOVRA   r0x1007
                      00195 ;;[ICODE] ../../libsdcc_mc32l/_modsint.c:38:    iTemp11 [k18 lr20:22 so:0]{ ia0 a2p0 re0 rm0 nos0 ru0 dp0}{unsigned-int fixed}[r0x1004 r0x1005 ] = (unsigned-int fixed)iTemp1 [k4 lr4:37 so:0]{ ia0 a2p0 re1 rm0 nos0 ru0 dp0}{int fixed}{ sir@ __modsint_b_1_2}[r0x1002 r0x1003 ]
                      00196 ;;104   MOVAR   r0x1003
                      00197 ;;106   MOVAR   r0x1002
                      00198 ;;[ICODE] ../../libsdcc_mc32l/_modsint.c:38:    send iTemp10 [k17 lr19:22 so:0]{ ia0 a2p0 re0 rm0 nos0 ru1 dp0}{unsigned-int fixed}[r0x1006 r0x1007 ]{argreg = 1}
                      00199 ;;[ICODE] ../../libsdcc_mc32l/_modsint.c:38:    send iTemp11 [k18 lr20:22 so:0]{ ia0 a2p0 re0 rm0 nos0 ru0 dp0}{unsigned-int fixed}[r0x1004 r0x1005 ]{argreg = 1}
                      00200 ;;[ICODE] ../../libsdcc_mc32l/_modsint.c:38:    iTemp12 [k19 lr23:24 so:0]{ ia0 a2p0 re0 rm0 nos0 ru1 dp0}{unsigned-int fixed}[r0x1004 r0x1005 ] = call __moduint [k8 lr0:0 so:0]{ ia0 a2p0 re0 rm0 nos0 ru0 dp0}{unsigned-int function ( unsigned-int fixed, unsigned-int fixed) fixed}
                      00201 ;;103   MOVAR   r0x1004
0043   5800           00202         MOVAR   r0x1003
0044   5600           00203         MOVRA   r0x1004
0045   5600           00204         MOVRA   STK02
                      00205 ;;105   MOVAR   r0x1005
0046   5800           00206         MOVAR   r0x1002
0047   5600           00207         MOVRA   r0x1005
0048   5600           00208         MOVRA   STK01
0049   5800           00209         MOVAR   r0x1006
004A   5600           00210         MOVRA   STK00
004B   5800           00211         MOVAR   r0x1007
004C   2100 2300      00212         LCALL   __moduint
004E   5600           00213         MOVRA   r0x1005
004F   5800           00214         MOVAR   STK00
0050   5600           00215         MOVRA   r0x1004
                      00216 ;;[ICODE] ../../libsdcc_mc32l/_modsint.c:38:    ret iTemp12 [k19 lr23:24 so:0]{ ia0 a2p0 re0 rm0 nos0 ru1 dp0}{unsigned-int fixed}[r0x1004 r0x1005 ]
0051   5800           00217         MOVAR   r0x1004
0052   5600           00218         MOVRA   STK00
0053   5800           00219         MOVAR   r0x1005
0054   2000 2300      00220         LGOTO   _00114_DS_
                      00221 ;;[ICODE] ../../libsdcc_mc32l/_modsint.c:38:  _iffalse_2($8) :
                      00222 ;;[ICODE] ../../libsdcc_mc32l/_modsint.c:40:    iTemp13 [k20 lr26:27 so:0]{ ia0 a2p0 re0 rm0 nos0 ru0 dp0}{char fixed} = iTemp1 [k4 lr4:37 so:0]{ ia0 a2p0 re1 rm0 nos0 ru0 dp0}{int fixed}{ sir@ __modsint_b_1_2}[r0x1002 r0x1003 ] < 0x0 {int literal}
                      00223 ;;signed compare: left < lit(0x0=0), size=2, mask=ffff
0056                  00224 _00112_DS_
                      00225 ;       .line   40; "../../libsdcc_mc32l/_modsint.c"    if (b < 0)
0056   C1B7           00226         BSET    PFLAG,0
0057   EE00           00227         JBSET   r0x1002,7
0058   D1B7           00228         BCLR    PFLAG,0
0059   E1B7           00229         JBSET   PFLAG,0
005A   2000 2300      00230         LGOTO   _00109_DS_
                      00231 ;;genSkipc:3195: created from rifx:00DD608C
                      00232 ;;[ICODE] ../../libsdcc_mc32l/_modsint.c:40:    if iTemp13 [k20 lr26:27 so:0]{ ia0 a2p0 re0 rm0 nos0 ru0 dp0}{char fixed} == 0 goto _iffalse_1($5)
                      00233 ;;[ICODE] ../../libsdcc_mc32l/_modsint.c:41:    iTemp14 [k21 lr28:32 so:0]{ ia0 a2p0 re0 rm0 nos0 ru1 dp0}{unsigned-int fixed}[r0x1004 r0x1005 ] = (unsigned-int fixed)iTemp0 [k2 lr3:36 so:0]{ ia0 a2p0 re1 rm0 nos0 ru0 dp0}{int fixed}{ sir@ __modsint_a_1_2}[r0x1000 r0x1001 ]
                      00234 ;       .line   41; "../../libsdcc_mc32l/_modsint.c"    return _moduint ((unsigned int)a, (unsigned int)-b);
005C   5800           00235         MOVAR   r0x1001
005D   5600           00236         MOVRA   r0x1004
005E   5800           00237         MOVAR   r0x1000
005F   5600           00238         MOVRA   r0x1005
                      00239 ;;[ICODE] ../../libsdcc_mc32l/_modsint.c:41:    iTemp15 [k22 lr29:30 so:0]{ ia0 a2p0 re0 rm0 nos0 ru0 dp0}{int fixed}[r0x1006 r0x1007 ] = - iTemp1 [k4 lr4:37 so:0]{ ia0 a2p0 re1 rm0 nos0 ru0 dp0}{int fixed}{ sir@ __modsint_b_1_2}[r0x1002 r0x1003 ]
0060   7000           00240         COMAR   r0x1003
0061   5600           00241         MOVRA   r0x1006
0062   7000           00242         COMAR   r0x1002
0063   5600           00243         MOVRA   r0x1007
0064   6600           00244         INCR    r0x1006
0065   F5B7           00245         JBCLR   PFLAG,2
0066   6600           00246         INCR    r0x1007
                      00247 ;;[ICODE] ../../libsdcc_mc32l/_modsint.c:41:    iTemp16 [k23 lr30:32 so:0]{ ia0 a2p0 re0 rm0 nos0 ru0 dp0}{unsigned-int fixed}[r0x1008 r0x1009 ] = (unsigned-int fixed)iTemp15 [k22 lr29:30 so:0]{ ia0 a2p0 re0 rm0 nos0 ru0 dp0}{int fixed}[r0x1006 r0x1007 ]
                      00248 ;;108   MOVAR   r0x1006
                      00249 ;;110   MOVAR   r0x1007
                      00250 ;;[ICODE] ../../libsdcc_mc32l/_modsint.c:41:    send iTemp14 [k21 lr28:32 so:0]{ ia0 a2p0 re0 rm0 nos0 ru1 dp0}{unsigned-int fixed}[r0x1004 r0x1005 ]{argreg = 1}
                      00251 ;;[ICODE] ../../libsdcc_mc32l/_modsint.c:41:    send iTemp16 [k23 lr30:32 so:0]{ ia0 a2p0 re0 rm0 nos0 ru0 dp0}{unsigned-int fixed}[r0x1008 r0x1009 ]{argreg = 1}
                      00252 ;;[ICODE] ../../libsdcc_mc32l/_modsint.c:41:    iTemp17 [k24 lr33:34 so:0]{ ia0 a2p0 re0 rm0 nos0 ru1 dp0}{unsigned-int fixed}[r0x1004 r0x1005 ] = call __moduint [k8 lr0:0 so:0]{ ia0 a2p0 re0 rm0 nos0 ru0 dp0}{unsigned-int function ( unsigned-int fixed, unsigned-int fixed) fixed}
                      00253 ;;107   MOVAR   r0x1008
0067   5800           00254         MOVAR   r0x1006
0068   5600           00255         MOVRA   r0x1008
0069   5600           00256         MOVRA   STK02
                      00257 ;;109   MOVAR   r0x1009
006A   5800           00258         MOVAR   r0x1007
006B   5600           00259         MOVRA   r0x1009
006C   5600           00260         MOVRA   STK01
006D   5800           00261         MOVAR   r0x1004
006E   5600           00262         MOVRA   STK00
006F   5800           00263         MOVAR   r0x1005
0070   2100 2300      00264         LCALL   __moduint
0072   5600           00265         MOVRA   r0x1005
0073   5800           00266         MOVAR   STK00
0074   5600           00267         MOVRA   r0x1004
                      00268 ;;[ICODE] ../../libsdcc_mc32l/_modsint.c:41:    ret iTemp17 [k24 lr33:34 so:0]{ ia0 a2p0 re0 rm0 nos0 ru1 dp0}{unsigned-int fixed}[r0x1004 r0x1005 ]
0075   5800           00269         MOVAR   r0x1004
0076   5600           00270         MOVRA   STK00
0077   5800           00271         MOVAR   r0x1005
0078   2000 2300      00272         LGOTO   _00114_DS_
                      00273 ;;[ICODE] ../../libsdcc_mc32l/_modsint.c:41:  _iffalse_1($5) :
                      00274 ;;[ICODE] ../../libsdcc_mc32l/_modsint.c:43:    iTemp18 [k25 lr36:39 so:0]{ ia0 a2p0 re0 rm0 nos0 ru1 dp0}{unsigned-int fixed}[r0x1004 r0x1005 ] = (unsigned-int fixed)iTemp0 [k2 lr3:36 so:0]{ ia0 a2p0 re1 rm0 nos0 ru0 dp0}{int fixed}{ sir@ __modsint_a_1_2}[r0x1000 r0x1001 ]
007A                  00275 _00109_DS_
                      00276 ;       .line   43; "../../libsdcc_mc32l/_modsint.c"    return _moduint ((unsigned int)a, (unsigned int)b);
007A   5800           00277         MOVAR   r0x1001
007B   5600           00278         MOVRA   r0x1004
007C   5800           00279         MOVAR   r0x1000
007D   5600           00280         MOVRA   r0x1005
                      00281 ;;[ICODE] ../../libsdcc_mc32l/_modsint.c:43:    iTemp19 [k26 lr37:39 so:0]{ ia0 a2p0 re0 rm0 nos0 ru0 dp0}{unsigned-int fixed}[r0x1000 r0x1001 ] = (unsigned-int fixed)iTemp1 [k4 lr4:37 so:0]{ ia0 a2p0 re1 rm0 nos0 ru0 dp0}{int fixed}{ sir@ __modsint_b_1_2}[r0x1002 r0x1003 ]
                      00282 ;;100   MOVAR   r0x1003
                      00283 ;;102   MOVAR   r0x1002
                      00284 ;;[ICODE] ../../libsdcc_mc32l/_modsint.c:43:    send iTemp18 [k25 lr36:39 so:0]{ ia0 a2p0 re0 rm0 nos0 ru1 dp0}{unsigned-int fixed}[r0x1004 r0x1005 ]{argreg = 1}
                      00285 ;;[ICODE] ../../libsdcc_mc32l/_modsint.c:43:    send iTemp19 [k26 lr37:39 so:0]{ ia0 a2p0 re0 rm0 nos0 ru0 dp0}{unsigned-int fixed}[r0x1000 r0x1001 ]{argreg = 1}
                      00286 ;;[ICODE] ../../libsdcc_mc32l/_modsint.c:43:    iTemp20 [k27 lr40:41 so:0]{ ia0 a2p0 re0 rm0 nos0 ru1 dp0}{unsigned-int fixed}[r0x1000 r0x1001 ] = call __moduint [k8 lr0:0 so:0]{ ia0 a2p0 re0 rm0 nos0 ru0 dp0}{unsigned-int function ( unsigned-int fixed, unsigned-int fixed) fixed}
                      00287 ;;99    MOVAR   r0x1001
007E   5800           00288         MOVAR   r0x1003
007F   5600           00289         MOVRA   r0x1001
0080   5600           00290         MOVRA   STK02
                      00291 ;;101   MOVAR   r0x1000
0081   5800           00292         MOVAR   r0x1002
0082   5600           00293         MOVRA   r0x1000
0083   5600           00294         MOVRA   STK01
0084   5800           00295         MOVAR   r0x1004
0085   5600           00296         MOVRA   STK00
0086   5800           00297         MOVAR   r0x1005
0087   2100 2300      00298         LCALL   __moduint
0089   5600           00299         MOVRA   r0x1000
008A   5800           00300         MOVAR   STK00
008B   5600           00301         MOVRA   r0x1001
                      00302 ;;[ICODE] ../../libsdcc_mc32l/_modsint.c:43:    ret iTemp20 [k27 lr40:41 so:0]{ ia0 a2p0 re0 rm0 nos0 ru1 dp0}{unsigned-int fixed}[r0x1000 r0x1001 ]
008C   5800           00303         MOVAR   r0x1001
008D   5600           00304         MOVRA   STK00
008E   5800           00305         MOVAR   r0x1000
                      00306 ;;[ICODE] ../../libsdcc_mc32l/_modsint.c:43:  _return($10) :
                      00307 ;;[ICODE] ../../libsdcc_mc32l/_modsint.c:43:    eproc __modsint [k1 lr0:0 so:0]{ ia0 a2p0 re0 rm0 nos0 ru0 dp0}{int function ( int fixed, int fixed) fixed}
008F                  00308 _00114_DS_
008F   000C           00309         RETURN  
                      00310 ; exit point of __modsint
                      00311 
                      00312 
                      00313 ;       code size estimation:
                      00314 ;         134+    0 =   134 instructions (  268 byte)
                      00315 
                      00316         end
gpasm-2.0.0_beta2 (Nov  6 2017)_modsint.asm       2018-1-11  15:10:27          PAGE  2


SYMBOL TABLE
  LABEL                             VALUE

ADCHS0                            00000004
ADCHS1                            00000005
ADCHS2                            00000006
ADCHS3                            00000007
ADCKS0                            00000002
ADCKS1                            00000003
ADCR0                             000001E8
ADCR1                             000001E9
ADCR2                             000001EA
ADDRH                             000001EC
ADDRL                             000001ED
ADEOC                             00000001
ADIE                              00000007
ADIF                              00000007
ADIOS0                            00000000
ADIOS1                            00000001
ADIOS2                            00000002
ADIOS3                            00000003
ADIOS4                            00000004
ADIOS5                            00000005
ADIOS6                            00000006
ADIOS7                            00000007
ADON                              00000000
C                                 00000000
CLKS                              00000002
CSEL0                             00000000
CSEL1                             00000001
DC                                00000001
DKW                               000001F4
DKWE                              00000007
DKWP0                             000001C3
DRVS                              00000001
DSELEN                            00000000
FILS                              00000003
FLCD0                             00000000
FLCD1                             00000001
FPWMA0                            00000002
FPWMA1                            00000003
FPWMB0                            00000000
FPWMB1                            00000001
FPWMEN                            00000007
FPWMS                             00000004
FSEL0                             00000002
FSEL1                             00000003
FSR0                              000001B4
FSR00                             00000000
FSR01                             00000001
FSR02                             00000002
FSR03                             00000003
FSR04                             00000004
FSR05                             00000005
FSR06                             00000006
FSR07                             00000007
FSR1                              000001B5
FSR10                             00000000
FSR11                             00000001
FSR12                             00000002
FSR13                             00000003
FSR14                             00000004
FSR15                             00000005
FSR16                             00000006
FSR17                             00000007
GIE                               00000007
HFEN                              00000000
HIBYTE                            000001B3
HIBYTE0                           00000000
HIBYTE1                           00000001
HIBYTE2                           00000002
HIBYTE3                           00000003
HIBYTE4                           00000004
HIBYTE5                           00000005
HIBYTE6                           00000006
HIBYTE7                           00000007
INDF0                             000001B0
INDF00                            00000000
INDF01                            00000001
INDF02                            00000002
INDF03                            00000003
INDF04                            00000004
INDF05                            00000005
INDF06                            00000006
INDF07                            00000007
INDF1                             000001B1
INDF10                            00000000
INDF11                            00000001
INDF12                            00000002
INDF13                            00000003
INDF14                            00000004
INDF15                            00000005
INDF16                            00000006
INDF17                            00000007
INDF2                             000001B2
INDF20                            00000000
INDF21                            00000001
INDF22                            00000002
INDF23                            00000003
INDF24                            00000004
INDF25                            00000005
INDF26                            00000006
INDF27                            00000007
INDF3                             000001B9
INDF30                            00000000
INDF31                            00000001
INDF32                            00000002
INDF33                            00000003
INDF34                            00000004
INDF35                            00000005
INDF36                            00000006
INDF37                            00000007
INT0IE                            00000002
INT0IF                            00000002
INT1IE                            00000003
INT1IF                            00000003
INTE                              000001BA
INTF                              000001BB
IOP0                              000001C0
IOP1                              000001C4
IOP2                              000001C8
IOP3                              000001CC
IOP4                              000001D0
IOP5                              000001D4
IRIN                              00000007
IROS                              00000006
IROT                              00000005
KBCR                              000001F5
KBCR0                             00000000
KBCR1                             00000001
KBCR2                             00000002
KBCR3                             00000003
KBCR4                             00000004
KBCR5                             00000005
KBCR6                             00000006
KBCR7                             00000007
KBIE                              00000004
KBIF                              00000004
LCDCKS                            00000002
LCDCR0                            000001F2
LCDCR1                            000001F3
LCDDRV                            000001F6
LCDDRVP06                         00000000
LCDDRVP22                         00000001
LCDDRVP23                         00000002
LCDDS00                           00000100
LCDDS01                           00000101
LCDDS02                           00000102
LCDDS03                           00000103
LCDDS04                           00000104
LCDDS05                           00000105
LCDDS06                           00000106
LCDDS07                           00000107
LCDDS08                           00000108
LCDDS09                           00000109
LCDDS10                           0000010A
LCDDS11                           0000010B
LCDDS12                           0000010C
LCDDS13                           0000010D
LCDDS14                           0000010E
LCDDS15                           0000010F
LCDDS16                           00000110
LCDDS17                           00000111
LCDDS18                           00000112
LCDDS19                           00000113
LCDDS20                           00000114
LCDDS21                           00000115
LCDDS22                           00000116
LCDDS23                           00000117
LCDDS24                           00000118
LCDDS25                           00000119
LCDDS26                           0000011A
LCDDS27                           0000011B
LCDDS28                           0000011C
LCDDS29                           0000011D
LCDDUTY                           00000004
LCDEN                             00000007
LCDIOSP1                          000001C7
LCDIOSP10                         00000000
LCDIOSP11                         00000001
LCDIOSP12                         00000002
LCDIOSP13                         00000003
LCDIOSP14                         00000004
LCDIOSP15                         00000005
LCDIOSP16                         00000006
LCDIOSP17                         00000007
LCDIOSP2                          000001CB
LCDIOSP20                         00000000
LCDIOSP21                         00000001
LCDIOSP22                         00000002
LCDIOSP23                         00000003
LCDIOSP24                         00000004
LCDIOSP25                         00000005
LCDIOSP26                         00000006
LCDIOSP27                         00000007
LCDIOSP3                          000001CF
LCDIOSP30                         00000000
LCDIOSP31                         00000001
LCDIOSP32                         00000002
LCDIOSP33                         00000003
LCDIOSP34                         00000004
LCDIOSP35                         00000005
LCDIOSP36                         00000006
LCDIOSP37                         00000007
LCDIOSP4                          000001D3
LCDIOSP40                         00000000
LCDIOSP41                         00000001
LCDIOSP42                         00000002
LCDIOSP43                         00000003
LCDIOSP44                         00000004
LCDIOSP45                         00000005
LCDIOSP46                         00000006
LCDIOSP47                         00000007
LCDIOSP5                          000001D7
LCDIOSP50                         00000000
LCDIOSP51                         00000001
LCDM                              00000003
LCDRS0                            00000000
LCDRS1                            00000001
LCDSP0                            00000005
LCDSP1                            00000006
LCDSPEED                          00000002
LFEN                              00000001
LPEN0                             00000000
LPEN1                             00000001
LPEN2                             00000002
LVDCR                             000001BD
LVDEN                             00000007
LVDF                              00000000
LVDIE                             00000005
LVDIF                             00000005
LVDS0                             00000003
LVDS1                             00000004
LVDS2                             00000005
LVDS3                             00000006
LXTCR                             000001BE
MCR                               000001B8
MINT00                            00000000
MINT01                            00000001
MINT10                            00000002
MINT11                            00000003
OEP0                              000001C1
OEP1                              000001C5
OEP2                              000001C9
OEP3                              000001CD
OEP4                              000001D1
OEP5                              000001D5
OPAE                              00000007
OPAM                              00000006
OPCR0                             000001F0
OPCR1                             000001F1
OPFC0                             00000000
OPFC1                             00000001
OPFC2                             00000002
OPFC3                             00000003
OPFC4                             00000004
OPFC5                             00000005
OSCM                              000001BC
P00D                              00000000
P00DKW                            00000000
P00OE                             00000000
P00PU                             00000000
P01D                              00000001
P01DKW                            00000001
P01OE                             00000001
P01PU                             00000001
P02D                              00000002
P02DKW                            00000002
P02OE                             00000002
P02PU                             00000002
P03D                              00000003
P03DKW                            00000003
P03OE                             00000003
P03PU                             00000003
P04D                              00000004
P04DKW                            00000004
P04OE                             00000004
P04PU                             00000004
P05D                              00000005
P05DKW                            00000005
P05OE                             00000005
P05PU                             00000005
P06D                              00000006
P06DKW                            00000006
P06OE                             00000006
P06PU                             00000006
P07D                              00000007
P07DKW                            00000007
P07OE                             00000007
P07PU                             00000007
P10D                              00000000
P10OE                             00000000
P10PU                             00000000
P11D                              00000001
P11OE                             00000001
P11PU                             00000001
P12D                              00000002
P12OE                             00000002
P12PU                             00000002
P13D                              00000003
P13OE                             00000003
P13PU                             00000003
P14D                              00000004
P14OE                             00000004
P14PU                             00000004
P15D                              00000005
P15OE                             00000005
P15PU                             00000005
P16D                              00000006
P16OE                             00000006
P16PU                             00000006
P17D                              00000007
P17OE                             00000007
P17PU                             00000007
P20D                              00000000
P20OE                             00000000
P20PU                             00000000
P21D                              00000001
P21OE                             00000001
P21PU                             00000001
P22D                              00000002
P22OE                             00000002
P22PU                             00000002
P23D                              00000003
P23OE                             00000003
P23PU                             00000003
P24D                              00000004
P24OE                             00000004
P24PU                             00000004
P25D                              00000005
P25OE                             00000005
P25PU                             00000005
P26D                              00000006
P26OE                             00000006
P26PU                             00000006
P27D                              00000007
P27OE                             00000007
P27PU                             00000007
P30D                              00000000
P30OE                             00000000
P30PU                             00000000
P31D                              00000001
P31OE                             00000001
P31PU                             00000001
P32D                              00000002
P32OE                             00000002
P32PU                             00000002
P33D                              00000003
P33OE                             00000003
P33PU                             00000003
P34D                              00000004
P34OE                             00000004
P34PU                             00000004
P35D                              00000005
P35OE                             00000005
P35PU                             00000005
P36D                              00000006
P36OE                             00000006
P36PU                             00000006
P37D                              00000007
P37OE                             00000007
P37PU                             00000007
P40D                              00000000
P40OE                             00000000
P40PU                             00000000
P41D                              00000001
P41OE                             00000001
P41PU                             00000001
P42D                              00000002
P42OE                             00000002
P42PU                             00000002
P43D                              00000003
P43OE                             00000003
P43PU                             00000003
P44D                              00000004
P44OE                             00000004
P44PU                             00000004
P45D                              00000005
P45OE                             00000005
P45PU                             00000005
P46D                              00000006
P46OE                             00000006
P46PU                             00000006
P47D                              00000007
P47OE                             00000007
P47PU                             00000007
P50D                              00000000
P50OE                             00000000
P50PU                             00000000
P51D                              00000001
P51OE                             00000001
P51PU                             00000001
P52D                              00000002
P52OE                             00000002
P52PU                             00000002
P53D                              00000003
P53OE                             00000003
P53PU                             00000003
P54D                              00000004
P54OE                             00000004
P55D                              00000005
P55OE                             00000005
P55PU                             00000005
PC0                               00000000
PC1                               00000001
PC2                               00000002
PC3                               00000003
PC4                               00000004
PC5                               00000005
PC6                               00000006
PC7                               00000007
PCL                               000001B6
PD                                00000004
PFLAG                             000001B7
PUP0                              000001C2
PUP1                              000001C6
PUP2                              000001CA
PUP3                              000001CE
PUP4                              000001D2
PUP5                              000001D6
PWMEN                             00000006
RSEL                              00000002
STBH                              00000004
STBL                              00000005
STK00                             00000000
STK01                             00000000
STK02                             00000000
STK03                             00000000
STK04                             00000000
STK05                             00000000
STK06                             00000000
T0CR0                             000001D8
T0CR1                             000001D9
T0DATAH                           000001DE
T0DATAH0                          00000000
T0DATAH1                          00000001
T0DATAH2                          00000002
T0DATAH3                          00000003
T0DATAH4                          00000004
T0DATAH5                          00000005
T0DATAH6                          00000006
T0DATAH7                          00000007
T0DATAL                           000001DF
T0DATAL0                          00000000
T0DATAL1                          00000001
T0DATAL2                          00000002
T0DATAL3                          00000003
T0DATAL4                          00000004
T0DATAL5                          00000005
T0DATAL6                          00000006
T0DATAL7                          00000007
T0IE                              00000000
T0IF                              00000000
T0LATFH                           000001E2
T0LATFH0                          00000000
T0LATFH1                          00000001
T0LATFH2                          00000002
T0LATFH3                          00000003
T0LATFH4                          00000004
T0LATFH5                          00000005
T0LATFH6                          00000006
T0LATFH7                          00000007
T0LATFL                           000001E3
T0LATFL0                          00000000
T0LATFL1                          00000001
T0LATFL2                          00000002
T0LATFL3                          00000003
T0LATFL4                          00000004
T0LATFL5                          00000005
T0LATFL6                          00000006
T0LATFL7                          00000007
T0LATRH                           000001E0
T0LATRH0                          00000000
T0LATRH1                          00000001
T0LATRH2                          00000002
T0LATRH3                          00000003
T0LATRH4                          00000004
T0LATRH5                          00000005
T0LATRH6                          00000006
T0LATRH7                          00000007
T0LATRL                           000001E1
T0LATRL0                          00000000
T0LATRL1                          00000001
T0LATRL2                          00000002
T0LATRL3                          00000003
T0LATRL4                          00000004
T0LATRL5                          00000005
T0LATRL6                          00000006
T0LATRL7                          00000007
T0LOADH                           000001DC
T0LOADL                           000001DD
T0LOADL0                          00000000
T0LOADL1                          00000001
T0LOADL2                          00000002
T0LOADL3                          00000003
T0LOADL4                          00000004
T0LOADL5                          00000005
T0LOADL6                          00000006
T0LOADL7                          00000007
T0MOD0                            00000005
T0MOD1                            00000006
T0PR0                             00000000
T0PR1                             00000001
T0PR2                             00000002
T0PTS0                            00000003
T0PTS1                            00000004
T0RF                              00000006
T1CR                              000001E4
T1DATA                            000001E5
T1DATA0                           00000000
T1DATA1                           00000001
T1DATA2                           00000002
T1DATA3                           00000003
T1DATA4                           00000004
T1DATA5                           00000005
T1DATA6                           00000006
T1DATA7                           00000007
T1IE                              00000001
T1IF                              00000001
T1LOAD                            000001E6
T1LOAD0                           00000000
T1LOAD1                           00000001
T1LOAD2                           00000002
T1LOAD3                           00000003
T1LOAD4                           00000004
T1LOAD5                           00000005
T1LOAD6                           00000006
T1LOAD7                           00000007
T1MOD0                            00000005
T1MOD1                            00000006
T1PR0                             00000000
T1PR1                             00000001
T1PR2                             00000002
T1PTS0                            00000003
T1PTS1                            00000004
TC0EN                             00000007
TC1EN                             00000007
TO                                00000005
VDLSEL                            00000004
VLCDS                             00000003
VREFRES                           00000001
VREXT                             00000000
VSEL                              00000006
WSEL0                             00000003
WSEL1                             00000004
Z                                 00000002
_00106_DS_                        00000038
_00109_DS_                        0000007A
_00112_DS_                        00000056
_00114_DS_                        0000008F
_CONFIG0                          00008000
_CONFIG1                          00008001
__33P116                          00000001
__modsint                         00000000
__moduint                         00000000
r0x1000                           00000001
r0x1001                           00000000
r0x1002                           00000003
r0x1003                           00000002
r0x1004                           00000004
r0x1005                           00000005
r0x1006                           00000006
r0x1007                           00000007
r0x1008                           00000008
r0x1009                           00000009

Errors   :     0
Warnings :     0 reported,     0 suppressed
Messages :     0 reported,     0 suppressed

