gpasm-2.0.0_beta2 (Nov  6 2017)fsdiv.asm          2018-1-12  10:31:13          PAGE  1


LOC  OBJECT CODE     LINE SOURCE TEXT
  VALUE

                      00001 ;--------------------------------------------------------
                      00002 ; File Created by SN-SDCC : SinoMCU ANSI-C Compiler
                      00003 ; Version 1.1.0 (Dec 19 2017) (MINGW32)
                      00004 ; This file was generated Fri Jan 12 10:31:12 2018
                      00005 ;--------------------------------------------------------
                      00006 ; MC32 port for the RISC core
                      00007 ;--------------------------------------------------------
                      00008 ;       .file   "../../libsdcc_mc32l/fsdiv.c"
                      00009         list    p=3316
                      00010         radix dec
                      00011         include "3316.inc"
                      00001                 LIST
                      00002 ;mc32p5314.inc    Standard Header File, Version 1.00 by Sinomcu
                      00772                 LIST
                      00012 ;--------------------------------------------------------
                      00013 ; external declarations
                      00014 ;--------------------------------------------------------
                      00015         extern  ___uchar2fs
                      00016         extern  ___schar2fs
                      00017         extern  ___uint2fs
                      00018         extern  ___sint2fs
                      00019         extern  ___ulong2fs
                      00020         extern  ___slong2fs
                      00021         extern  ___fs2uchar
                      00022         extern  ___fs2schar
                      00023         extern  ___fs2uint
                      00024         extern  ___fs2sint
                      00025         extern  ___fs2ulong
                      00026         extern  ___fs2slong
                      00027         extern  ___fsadd
                      00028         extern  ___fssub
                      00029         extern  ___fsmul
                      00030         extern  ___fslt
                      00031         extern  ___fseq
                      00032         extern  ___fsneq
                      00033         extern  ___fsgt
                      00034 
                      00035         extern STK06
                      00036         extern STK05
                      00037         extern STK04
                      00038         extern STK03
                      00039         extern STK02
                      00040         extern STK01
                      00041         extern STK00
                      00042 ;--------------------------------------------------------
                      00043 ; global declarations
                      00044 ;--------------------------------------------------------
                      00045         global  ___fsdiv
                      00046 
                      00047 ;--------------------------------------------------------
                      00048 ; global definitions
                      00049 ;--------------------------------------------------------
                      00050 ;--------------------------------------------------------
                      00051 ; absolute symbol definitions
                      00052 ;--------------------------------------------------------
                      00053 ;--------------------------------------------------------
                      00054 ; compiler-defined variables
                      00055 ;--------------------------------------------------------
                      00056 UDL_fsdiv_0     udata
0000                  00057 r0x100B res     1
0000                  00058 r0x100A res     1
0001                  00059 r0x1009 res     1
0001                  00060 r0x1008 res     1
0002                  00061 r0x100F res     1
0002                  00062 r0x100E res     1
0003                  00063 r0x100D res     1
0003                  00064 r0x100C res     1
0004                  00065 r0x1010 res     1
0004                  00066 r0x1011 res     1
0005                  00067 r0x1012 res     1
0005                  00068 r0x1013 res     1
0006                  00069 r0x1014 res     1
0006                  00070 r0x1015 res     1
0007                  00071 r0x1016 res     1
0007                  00072 r0x1017 res     1
0008                  00073 r0x1018 res     1
0008                  00074 r0x1019 res     1
0009                  00075 r0x101A res     1
0009                  00076 r0x101B res     1
000A                  00077 r0x101C res     1
000A                  00078 r0x101D res     1
000B                  00079 r0x101E res     1
000B                  00080 r0x101F res     1
000C                  00081 r0x1020 res     1
000C                  00082 r0x1021 res     1
000D                  00083 r0x1022 res     1
000D                  00084 r0x1023 res     1
000E                  00085 r0x1024 res     1
000E                  00086 ___fsdiv_fl1_1_22       res     4
0010                  00087 ___fsdiv_fl2_1_22       res     4
                      00088 ;--------------------------------------------------------
                      00089 ; initialized data
                      00090 ;--------------------------------------------------------
                      00091 
                      00092 ;@Allocation info for local variables in function '__fsdiv'
                      00093 ;@__fsdiv __uchar2fs                Allocated to registers ;size:2
                      00094 ;@__fsdiv __schar2fs                Allocated to registers ;size:2
                      00095 ;@__fsdiv __uint2fs                 Allocated to registers ;size:2
                      00096 ;@__fsdiv __sint2fs                 Allocated to registers ;size:2
                      00097 ;@__fsdiv __ulong2fs                Allocated to registers ;size:2
                      00098 ;@__fsdiv __slong2fs                Allocated to registers ;size:2
                      00099 ;@__fsdiv __fs2uchar                Allocated to registers ;size:2
                      00100 ;@__fsdiv __fs2schar                Allocated to registers ;size:2
                      00101 ;@__fsdiv __fs2uint                 Allocated to registers ;size:2
                      00102 ;@__fsdiv __fs2sint                 Allocated to registers ;size:2
                      00103 ;@__fsdiv __fs2ulong                Allocated to registers ;size:2
                      00104 ;@__fsdiv __fs2slong                Allocated to registers ;size:2
                      00105 ;@__fsdiv __fsadd                   Allocated to registers ;size:2
                      00106 ;@__fsdiv __fssub                   Allocated to registers ;size:2
                      00107 ;@__fsdiv __fsmul                   Allocated to registers ;size:2
                      00108 ;@__fsdiv __fslt                    Allocated to registers ;size:2
                      00109 ;@__fsdiv __fseq                    Allocated to registers ;size:2
                      00110 ;@__fsdiv __fsneq                   Allocated to registers ;size:2
                      00111 ;@__fsdiv __fsgt                    Allocated to registers ;size:2
                      00112 ;@__fsdiv a2                        Allocated to registers r0x100F r0x100E r0x100D r0x100C ;size:4
                      00113 ;@__fsdiv a1                        Allocated to registers r0x100B r0x100A r0x1009 r0x1008 ;size:4
                      00114 ;@__fsdiv fl1                       Allocated to registers ;size:4
                      00115 ;@__fsdiv fl2                       Allocated to registers ;size:4
                      00116 ;@__fsdiv result                    Allocated to registers r0x101D r0x101E r0x101F r0x1020 ;size:4
                      00117 ;@__fsdiv mask                      Allocated to registers r0x1019 r0x101A r0x101B r0x101C ;size:4
                      00118 ;@__fsdiv mant1                     Allocated to registers r0x100D r0x1012 r0x1013 r0x1014 ;size:4
                      00119 ;@__fsdiv mant2                     Allocated to registers r0x1015 r0x1016 r0x1017 r0x1018 ;size:4
                      00120 ;@__fsdiv exp                       Allocated to registers r0x100B r0x100A ;size:2
                      00121 ;@__fsdiv sign                      Allocated to registers r0x1009 ;size:1
                      00122 ;@end Allocation info for local variables in function '__fsdiv';
                      00123 
                      00124 ;--------------------------------------------------------
                      00125 ; overlayable items in internal ram 
                      00126 ;--------------------------------------------------------
                      00127 ;       udata_ovr
                      00128 ;--------------------------------------------------------
                      00129 ; code
                      00130 ;--------------------------------------------------------
                      00131 code_fsdiv      code
                      00132 ;***
                      00133 ;  pBlock Stats: dbName = C
                      00134 ;***
                      00135 ;entry:  ___fsdiv       ;Function start
                      00136 ; 2 exit points
                      00137 ;has an exit
                      00138 ;36 compiler assigned registers:
                      00139 ;   r0x1008
                      00140 ;   STK00
                      00141 ;   r0x1009
                      00142 ;   STK01
                      00143 ;   r0x100A
                      00144 ;   STK02
                      00145 ;   r0x100B
                      00146 ;   STK03
                      00147 ;   r0x100C
                      00148 ;   STK04
                      00149 ;   r0x100D
                      00150 ;   STK05
                      00151 ;   r0x100E
                      00152 ;   STK06
                      00153 ;   r0x100F
                      00154 ;   r0x1010
                      00155 ;   r0x1011
                      00156 ;   r0x1012
                      00157 ;   r0x1013
                      00158 ;   r0x1014
                      00159 ;   r0x1015
                      00160 ;   r0x1016
                      00161 ;   r0x1017
                      00162 ;   r0x1018
                      00163 ;   r0x1019
                      00164 ;   r0x101A
                      00165 ;   r0x101B
                      00166 ;   r0x101C
                      00167 ;   r0x101D
                      00168 ;   r0x101E
                      00169 ;   r0x101F
                      00170 ;   r0x1020
                      00171 ;   r0x1021
                      00172 ;   r0x1022
                      00173 ;   r0x1023
                      00174 ;   r0x1024
                      00175 ;; Starting pCode block
                      00176 ;;[ICODE] ../../libsdcc_mc32l/fsdiv.c:55:  _entry($19) :
                      00177 ;;[ICODE] ../../libsdcc_mc32l/fsdiv.c:55:       proc ___fsdiv [k1 lr0:0 so:0]{ ia0 a2p0 re0 rm0 nos0 ru0 dp0}{float function ( float fixed, float fixed) fixed}
0000                  00178 ___fsdiv        ;Function start
                      00179 ; 2 exit points
                      00180 ;;[ICODE] ../../libsdcc_mc32l/fsdiv.c:55: iTemp0 [k2 lr3:6 so:0]{ ia0 a2p0 re1 rm0 nos0 ru0 dp0}{float fixed}{ sir@ ___fsdiv_a1_1_21}[r0x1000 r0x1001 r0x1002 r0x1003 ] = recv ___fsdiv [k1 lr0:0 so:0]{ ia0 a2p0 re0 rm0 nos0 ru0 dp0}{float function ( float fixed, float fixed) fixed}
                      00181 ;       .line   55; "../../libsdcc_mc32l/fsdiv.c"       float __fsdiv (float a1, float a2) _FS_REENTRANT
0000   5600           00182         MOVRA   r0x1008
0001   5800           00183         MOVAR   STK00
0002   5600           00184         MOVRA   r0x1009
0003   5800           00185         MOVAR   STK01
0004   5600           00186         MOVRA   r0x100A
0005   5800           00187         MOVAR   STK02
0006   5600           00188         MOVRA   (___fsdiv_fl1_1_22 + 0)
0007   5600           00189         MOVRA   r0x100B
                      00190 ;;[ICODE] ../../libsdcc_mc32l/fsdiv.c:55: iTemp1 [k4 lr4:8 so:0]{ ia0 a2p0 re1 rm0 nos0 ru0 dp0}{float fixed}{ sir@ ___fsdiv_a2_1_21}[r0x1004 r0x1005 r0x1006 r0x1007 ] = recv ___fsdiv [k1 lr0:0 so:0]{ ia0 a2p0 re0 rm0 nos0 ru0 dp0}{float function ( float fixed, float fixed) fixed}
0008   5800           00191         MOVAR   STK03
0009   5600           00192         MOVRA   r0x100C
000A   5800           00193         MOVAR   STK04
000B   5600           00194         MOVRA   r0x100D
000C   5800           00195         MOVAR   STK05
000D   5600           00196         MOVRA   r0x100E
000E   5800           00197         MOVAR   STK06
000F   5600           00198         MOVRA   (___fsdiv_fl2_1_22 + 0)
0010   5600           00199         MOVRA   r0x100F
                      00200 ;;[ICODE] ../../libsdcc_mc32l/fsdiv.c:64:       iTemp2 [k7 lr5:6 so:0]{ ia0 a2p0 re0 rm1 nos0 ru0 dp0}{volatile-float near* fixed}[remat] = &[___fsdiv_fl1_1_22 [k6 lr0:0 so:0]{ ia0 a2p0 re0 rm0 nos0 ru0 dp0}{volatile-struct float_long fixed}]
                      00201 ;;[ICODE] ../../libsdcc_mc32l/fsdiv.c:64:       *(iTemp2 [k7 lr5:6 so:0]{ ia1 a2p0 re0 rm1 nos0 ru0 dp0}{volatile-float near* fixed}[remat]) := iTemp0 [k2 lr3:6 so:0]{ ia0 a2p0 re1 rm0 nos0 ru0 dp0}{float fixed}{ sir@ ___fsdiv_a1_1_21}[r0x1000 r0x1001 r0x1002 r0x1003 ]
                      00202 ;;gen.c:6374: size=3/4, offset=0, AOP_TYPE(res)=8
                      00203 ;;136   MOVAR   r0x100B
                      00204 ;;gen.c:6374: size=2/4, offset=1, AOP_TYPE(res)=8
                      00205 ;       .line   64; "../../libsdcc_mc32l/fsdiv.c"       fl1.f = a1;
0011   5800           00206         MOVAR   r0x100A
0012   5600           00207         MOVRA   (___fsdiv_fl1_1_22 + 1)
                      00208 ;;gen.c:6374: size=1/4, offset=2, AOP_TYPE(res)=8
0013   5800           00209         MOVAR   r0x1009
0014   5600           00210         MOVRA   (___fsdiv_fl1_1_22 + 2)
                      00211 ;;gen.c:6374: size=0/4, offset=3, AOP_TYPE(res)=8
0015   5800           00212         MOVAR   r0x1008
0016   5600           00213         MOVRA   (___fsdiv_fl1_1_22 + 3)
                      00214 ;;[ICODE] ../../libsdcc_mc32l/fsdiv.c:65:       iTemp4 [k11 lr7:8 so:0]{ ia0 a2p0 re0 rm1 nos0 ru0 dp0}{volatile-float near* fixed}[remat] = &[___fsdiv_fl2_1_22 [k10 lr0:0 so:0]{ ia0 a2p0 re0 rm0 nos0 ru0 dp0}{volatile-struct float_long fixed}]
                      00215 ;;[ICODE] ../../libsdcc_mc32l/fsdiv.c:65:       *(iTemp4 [k11 lr7:8 so:0]{ ia1 a2p0 re0 rm1 nos0 ru0 dp0}{volatile-float near* fixed}[remat]) := iTemp1 [k4 lr4:8 so:0]{ ia0 a2p0 re1 rm0 nos0 ru0 dp0}{float fixed}{ sir@ ___fsdiv_a2_1_21}[r0x1004 r0x1005 r0x1006 r0x1007 ]
                      00216 ;;gen.c:6374: size=3/4, offset=0, AOP_TYPE(res)=8
                      00217 ;;133   MOVAR   r0x100F
                      00218 ;;gen.c:6374: size=2/4, offset=1, AOP_TYPE(res)=8
                      00219 ;       .line   65; "../../libsdcc_mc32l/fsdiv.c"       fl2.f = a2;
0017   5800           00220         MOVAR   r0x100E
0018   5600           00221         MOVRA   (___fsdiv_fl2_1_22 + 1)
                      00222 ;;gen.c:6374: size=1/4, offset=2, AOP_TYPE(res)=8
0019   5800           00223         MOVAR   r0x100D
001A   5600           00224         MOVRA   (___fsdiv_fl2_1_22 + 2)
                      00225 ;;gen.c:6374: size=0/4, offset=3, AOP_TYPE(res)=8
001B   5800           00226         MOVAR   r0x100C
001C   5600           00227         MOVRA   (___fsdiv_fl2_1_22 + 3)
                      00228 ;;[ICODE] ../../libsdcc_mc32l/fsdiv.c:68:       iTemp7 [k16 lr9:10 so:0]{ ia0 a2p0 re0 rm1 nos0 ru0 dp0}{volatile-long-int near* fixed}[remat] = &[___fsdiv_fl1_1_22 [k6 lr0:0 so:0]{ ia0 a2p0 re0 rm0 nos0 ru0 dp0}{volatile-struct float_long fixed}]
                      00229 ;;[ICODE] ../../libsdcc_mc32l/fsdiv.c:68:       iTemp9 [k19 lr10:11 so:0]{ ia0 a2p0 re0 rm0 nos0 ru0 dp0}{volatile-long-int fixed}[r0x1000 r0x1001 r0x1002 r0x1003 ] = @[iTemp7 [k16 lr9:10 so:0]{ ia1 a2p0 re0 rm1 nos0 ru0 dp0}{volatile-long-int near* fixed}[remat] + 0x0 {const-unsigned-char literal}]
                      00230 ;       .line   68; "../../libsdcc_mc32l/fsdiv.c"       exp = EXP (fl1.l) ;
001D   5800           00231         MOVAR   (___fsdiv_fl1_1_22 + 0)
001E   5600           00232         MOVRA   r0x100F
001F   5600           00233         MOVRA   r0x100B
0020   5800           00234         MOVAR   (___fsdiv_fl1_1_22 + 1)
0021   5600           00235         MOVRA   r0x100E
0022   5600           00236         MOVRA   r0x100A
0023   5800           00237         MOVAR   (___fsdiv_fl1_1_22 + 2)
0024   5600           00238         MOVRA   r0x100D
0025   5600           00239         MOVRA   r0x1009
0026   5800           00240         MOVAR   (___fsdiv_fl1_1_22 + 3)
0027   5600           00241         MOVRA   r0x100C
0028   5600           00242         MOVRA   r0x1008
                      00243 ;;[ICODE] ../../libsdcc_mc32l/fsdiv.c:68:       iTemp10 [k20 lr11:12 so:0]{ ia0 a2p0 re0 rm0 nos0 ru0 dp0}{unsigned-long-int fixed}[r0x1004 r0x1005 r0x1006 r0x1007 ] = (unsigned-long-int fixed)iTemp9 [k19 lr10:11 so:0]{ ia0 a2p0 re0 rm0 nos0 ru0 dp0}{volatile-long-int fixed}[r0x1000 r0x1001 r0x1002 r0x1003 ]
                      00244 ;;130   MOVAR   r0x100B
                      00245 ;;122   MOVAR   r0x100A
                      00246 ;;137   MOVAR   r0x1009
                      00247 ;;132   MOVAR   r0x1008
                      00248 ;;[ICODE] ../../libsdcc_mc32l/fsdiv.c:68:       iTemp11 [k21 lr12:13 so:0]{ ia0 a2p0 re0 rm0 nos0 ru0 dp0}{unsigned-long-int fixed}[r0x1000 r0x1001 r0x1002 r0x1003 ] = iTemp10 [k20 lr11:12 so:0]{ ia0 a2p0 re0 rm0 nos0 ru0 dp0}{unsigned-long-int fixed}[r0x1004 r0x1005 r0x1006 r0x1007 ] >> 0x17 {const-unsigned-char literal}
0029   5000           00249         RLAR    r0x100D
002A   5000           00250         RLAR    r0x100C
002B   5600           00251         MOVRA   r0x100F
002C   5600           00252         MOVRA   r0x100B
002D   7600           00253         CLRR    r0x100A
002E   5200           00254         RLR     r0x100A
002F   7600           00255         CLRR    r0x1009
0030   7600           00256         CLRR    r0x1008
                      00257 ;;[ICODE] ../../libsdcc_mc32l/fsdiv.c:68:       iTemp12 [k22 lr13:14 so:0]{ ia0 a2p0 re0 rm0 nos0 ru0 dp0}{unsigned-long-int fixed}[r0x1004 r0x1005 r0x1006 r0x1007 ] = iTemp11 [k21 lr12:13 so:0]{ ia0 a2p0 re0 rm0 nos0 ru0 dp0}{unsigned-long-int fixed}[r0x1000 r0x1001 r0x1002 r0x1003 ] & 0xff {unsigned-long-int literal}
                      00258 ;;121   MOVAR   r0x100B
0031   7600           00259         CLRR    r0x100E
0032   7600           00260         CLRR    r0x100D
0033   7600           00261         CLRR    r0x100C
                      00262 ;;[ICODE] ../../libsdcc_mc32l/fsdiv.c:68:       iTemp6 [k14 lr14:124 so:0]{ ia0 a2p0 re1 rm0 nos0 ru0 dp0}{int fixed}{ sir@ ___fsdiv_exp_1_22}[r0x1000 r0x1001 ] = (int fixed)iTemp12 [k22 lr13:14 so:0]{ ia0 a2p0 re0 rm0 nos0 ru0 dp0}{unsigned-long-int fixed}[r0x1004 r0x1005 r0x1006 r0x1007 ]
0034   5800           00263         MOVAR   r0x100F
0035   5600           00264         MOVRA   r0x100B
0036   3C00           00265         MOVAI   0x00
0037   5600           00266         MOVRA   r0x100A
                      00267 ;;[ICODE] ../../libsdcc_mc32l/fsdiv.c:69:       iTemp14 [k24 lr16:17 so:0]{ ia0 a2p0 re0 rm1 nos0 ru0 dp0}{volatile-long-int near* fixed}[remat] = &[___fsdiv_fl2_1_22 [k10 lr0:0 so:0]{ ia0 a2p0 re0 rm0 nos0 ru0 dp0}{volatile-struct float_long fixed}]
                      00268 ;;[ICODE] ../../libsdcc_mc32l/fsdiv.c:69:       iTemp16 [k27 lr17:18 so:0]{ ia0 a2p0 re0 rm0 nos0 ru0 dp0}{volatile-long-int fixed}[r0x1002 r0x1003 r0x1004 r0x1005 ] = @[iTemp14 [k24 lr16:17 so:0]{ ia1 a2p0 re0 rm1 nos0 ru0 dp0}{volatile-long-int near* fixed}[remat] + 0x0 {const-unsigned-char literal}]
                      00269 ;       .line   69; "../../libsdcc_mc32l/fsdiv.c"       exp -= EXP (fl2.l);
0038   5800           00270         MOVAR   (___fsdiv_fl2_1_22 + 0)
0039   5600           00271         MOVRA   r0x100D
003A   5600           00272         MOVRA   r0x1009
003B   5800           00273         MOVAR   (___fsdiv_fl2_1_22 + 1)
003C   5600           00274         MOVRA   r0x100C
003D   5600           00275         MOVRA   r0x1008
003E   5800           00276         MOVAR   (___fsdiv_fl2_1_22 + 2)
003F   5600           00277         MOVRA   r0x1010
0040   5600           00278         MOVRA   r0x100F
0041   5800           00279         MOVAR   (___fsdiv_fl2_1_22 + 3)
0042   5600           00280         MOVRA   r0x1011
0043   5600           00281         MOVRA   r0x100E
                      00282 ;;[ICODE] ../../libsdcc_mc32l/fsdiv.c:69:       iTemp17 [k28 lr18:19 so:0]{ ia0 a2p0 re0 rm0 nos0 ru0 dp0}{unsigned-long-int fixed}[r0x1006 r0x1007 r0x1008 r0x1009 ] = (unsigned-long-int fixed)iTemp16 [k27 lr17:18 so:0]{ ia0 a2p0 re0 rm0 nos0 ru0 dp0}{volatile-long-int fixed}[r0x1002 r0x1003 r0x1004 r0x1005 ]
                      00283 ;;131   MOVAR   r0x1009
                      00284 ;;124   MOVAR   r0x1008
                      00285 ;;125   MOVAR   r0x100F
                      00286 ;;126   MOVAR   r0x100E
                      00287 ;;[ICODE] ../../libsdcc_mc32l/fsdiv.c:69:       iTemp18 [k29 lr19:20 so:0]{ ia0 a2p0 re0 rm0 nos0 ru0 dp0}{unsigned-long-int fixed}[r0x1002 r0x1003 r0x1004 r0x1005 ] = iTemp17 [k28 lr18:19 so:0]{ ia0 a2p0 re0 rm0 nos0 ru0 dp0}{unsigned-long-int fixed}[r0x1006 r0x1007 r0x1008 r0x1009 ] >> 0x17 {const-unsigned-char literal}
0044   5000           00288         RLAR    r0x1010
0045   5000           00289         RLAR    r0x1011
0046   5600           00290         MOVRA   r0x100D
0047   5600           00291         MOVRA   r0x1009
0048   7600           00292         CLRR    r0x1008
0049   5200           00293         RLR     r0x1008
004A   7600           00294         CLRR    r0x100F
004B   7600           00295         CLRR    r0x100E
                      00296 ;;[ICODE] ../../libsdcc_mc32l/fsdiv.c:69:       iTemp19 [k30 lr20:22 so:0]{ ia0 a2p0 re0 rm0 nos0 ru0 dp0}{unsigned-long-int fixed}[r0x1006 r0x1007 r0x1008 r0x1009 ] = iTemp18 [k29 lr19:20 so:0]{ ia0 a2p0 re0 rm0 nos0 ru0 dp0}{unsigned-long-int fixed}[r0x1002 r0x1003 r0x1004 r0x1005 ] & 0xff {unsigned-long-int literal}
                      00297 ;;123   MOVAR   r0x1009
004C   7600           00298         CLRR    r0x100C
004D   7600           00299         CLRR    r0x1010
004E   7600           00300         CLRR    r0x1011
                      00301 ;;[ICODE] ../../libsdcc_mc32l/fsdiv.c:69:       iTemp20 [k31 lr21:22 so:0]{ ia0 a2p0 re0 rm0 nos0 ru0 dp0}{unsigned-long-int fixed}[r0x1002 r0x1003 r0x1004 r0x1005 ] = (unsigned-long-int fixed)iTemp6 [k14 lr14:124 so:0]{ ia0 a2p0 re1 rm0 nos0 ru0 dp0}{int fixed}{ sir@ ___fsdiv_exp_1_22}[r0x1000 r0x1001 ]
004F   5800           00302         MOVAR   r0x100B
0050   5600           00303         MOVRA   r0x1009
0051   5800           00304         MOVAR   r0x100A
0052   5600           00305         MOVRA   r0x1008
0053   3C00           00306         MOVAI   0x00
0054   FE00           00307         JBCLR   r0x1008,7
0055   3CFF           00308         MOVAI   0xff
0056   5600           00309         MOVRA   r0x100E
0057   5600           00310         MOVRA   r0x100F
                      00311 ;;[ICODE] ../../libsdcc_mc32l/fsdiv.c:69:       iTemp21 [k32 lr22:23 so:0]{ ia0 a2p0 re0 rm0 nos0 ru0 dp0}{unsigned-long-int fixed}[r0x1006 r0x1007 r0x1008 r0x1009 ] = iTemp20 [k31 lr21:22 so:0]{ ia0 a2p0 re0 rm0 nos0 ru0 dp0}{unsigned-long-int fixed}[r0x1002 r0x1003 r0x1004 r0x1005 ] - iTemp19 [k30 lr20:22 so:0]{ ia0 a2p0 re0 rm0 nos0 ru0 dp0}{unsigned-long-int fixed}[r0x1006 r0x1007 r0x1008 r0x1009 ]
0058   5800           00312         MOVAR   r0x100D
0059   4800           00313         RSUBAR  r0x1009
005A   5600           00314         MOVRA   r0x100D
005B   5800           00315         MOVAR   r0x100C
005C   E1B7           00316         JBSET   PFLAG,0
005D   6000           00317         JZAR    r0x100C
005E   2000 2300      00318         LGOTO   _00148_DS_
0060   5800           00319         MOVAR   r0x1008
0061   2000 2300      00320         LGOTO   _00149_DS_
0063                  00321 _00148_DS_
0063   4800           00322         RSUBAR  r0x1008
0064                  00323 _00149_DS_
0064   5600           00324         MOVRA   r0x100C
0065   5800           00325         MOVAR   r0x1010
0066   E1B7           00326         JBSET   PFLAG,0
0067   6000           00327         JZAR    r0x1010
0068   2000 2300      00328         LGOTO   _00150_DS_
006A   5800           00329         MOVAR   r0x100F
006B   2000 2300      00330         LGOTO   _00151_DS_
006D                  00331 _00150_DS_
006D   4800           00332         RSUBAR  r0x100F
006E                  00333 _00151_DS_
006E   5600           00334         MOVRA   r0x1010
006F   5800           00335         MOVAR   r0x1011
0070   E1B7           00336         JBSET   PFLAG,0
0071   6400           00337         INCAR   r0x1011
0072   4800           00338         RSUBAR  r0x100E
0073   5600           00339         MOVRA   r0x1011
                      00340 ;;[ICODE] ../../libsdcc_mc32l/fsdiv.c:69:       iTemp6 [k14 lr14:124 so:0]{ ia0 a2p0 re1 rm0 nos0 ru0 dp0}{int fixed}{ sir@ ___fsdiv_exp_1_22}[r0x1000 r0x1001 ] = (int fixed)iTemp21 [k32 lr22:23 so:0]{ ia0 a2p0 re0 rm0 nos0 ru0 dp0}{unsigned-long-int fixed}[r0x1006 r0x1007 r0x1008 r0x1009 ]
0074   5800           00341         MOVAR   r0x100D
0075   5600           00342         MOVRA   r0x100B
0076   5800           00343         MOVAR   r0x100C
0077   5600           00344         MOVRA   r0x100A
                      00345 ;;[ICODE] ../../libsdcc_mc32l/fsdiv.c:70:       iTemp6 [k14 lr14:124 so:0]{ ia0 a2p0 re1 rm0 nos0 ru0 dp0}{int fixed}{ sir@ ___fsdiv_exp_1_22}[r0x1000 r0x1001 ] = iTemp6 [k14 lr14:124 so:0]{ ia0 a2p0 re1 rm0 nos0 ru0 dp0}{int fixed}{ sir@ ___fsdiv_exp_1_22}[r0x1000 r0x1001 ] + 0x7e {int literal}
                      00346 ;       .line   70; "../../libsdcc_mc32l/fsdiv.c"       exp += EXCESS;
0078   3C7E           00347         MOVAI   0x7e
0079   7E00           00348         ADDRA   r0x100B
007A   F1B7           00349         JBCLR   PFLAG,0
007B   6600           00350         INCR    r0x100A
                      00351 ;;[ICODE] ../../libsdcc_mc32l/fsdiv.c:73:       iTemp25 [k37 lr27:28 so:0]{ ia0 a2p0 re0 rm1 nos0 ru0 dp0}{volatile-long-int near* fixed}[remat] = &[___fsdiv_fl1_1_22 [k6 lr0:0 so:0]{ ia0 a2p0 re0 rm0 nos0 ru0 dp0}{volatile-struct float_long fixed}]
                      00352 ;;[ICODE] ../../libsdcc_mc32l/fsdiv.c:73:       iTemp27 [k40 lr28:29 so:0]{ ia0 a2p0 re0 rm0 nos0 ru0 dp0}{volatile-long-int fixed}[r0x1002 r0x1003 r0x1004 r0x1005 ] = @[iTemp25 [k37 lr27:28 so:0]{ ia1 a2p0 re0 rm1 nos0 ru0 dp0}{volatile-long-int near* fixed}[remat] + 0x0 {const-unsigned-char literal}]
                      00353 ;       .line   73; "../../libsdcc_mc32l/fsdiv.c"       sign = SIGN (fl1.l) ^ SIGN (fl2.l);
007C   5800           00354         MOVAR   (___fsdiv_fl1_1_22 + 0)
007D   5600           00355         MOVRA   r0x100D
007E   5600           00356         MOVRA   r0x1009
007F   5800           00357         MOVAR   (___fsdiv_fl1_1_22 + 1)
0080   5600           00358         MOVRA   r0x100C
0081   5600           00359         MOVRA   r0x1008
0082   5800           00360         MOVAR   (___fsdiv_fl1_1_22 + 2)
0083   5600           00361         MOVRA   r0x1010
0084   5600           00362         MOVRA   r0x100F
0085   5800           00363         MOVAR   (___fsdiv_fl1_1_22 + 3)
0086   5600           00364         MOVRA   r0x1011
0087   5600           00365         MOVRA   r0x100E
                      00366 ;;[ICODE] ../../libsdcc_mc32l/fsdiv.c:73:       iTemp28 [k41 lr29:30 so:0]{ ia0 a2p0 re0 rm0 nos0 ru0 dp0}{unsigned-long-int fixed}[r0x1006 r0x1007 r0x1008 r0x1009 ] = (unsigned-long-int fixed)iTemp27 [k40 lr28:29 so:0]{ ia0 a2p0 re0 rm0 nos0 ru0 dp0}{volatile-long-int fixed}[r0x1002 r0x1003 r0x1004 r0x1005 ]
                      00367 ;;103   MOVAR   r0x1009
                      00368 ;;104   MOVAR   r0x1008
                      00369 ;;105   MOVAR   r0x100F
                      00370 ;;106   MOVAR   r0x100E
                      00371 ;;[ICODE] ../../libsdcc_mc32l/fsdiv.c:73:       iTemp29 [k42 lr30:35 so:0]{ ia0 a2p0 re0 rm0 nos0 ru0 dp0}{char fixed}[r0x1002 ] = gabit iTemp28 [k41 lr29:30 so:0]{ ia0 a2p0 re0 rm0 nos0 ru0 dp0}{unsigned-long-int fixed}[r0x1006 r0x1007 r0x1008 r0x1009 ]
0088   5800           00372         MOVAR   r0x1011
0089   3E80           00373         ANDAI   0x80
008A   E5B7           00374         JBSET   PFLAG,2
008B   3C01           00375         MOVAI   0x01
008C   5600           00376         MOVRA   r0x1009
                      00377 ;;[ICODE] ../../libsdcc_mc32l/fsdiv.c:73:       iTemp30 [k43 lr31:32 so:0]{ ia0 a2p0 re0 rm1 nos0 ru0 dp0}{volatile-long-int near* fixed}[remat] = &[___fsdiv_fl2_1_22 [k10 lr0:0 so:0]{ ia0 a2p0 re0 rm0 nos0 ru0 dp0}{volatile-struct float_long fixed}]
                      00378 ;;[ICODE] ../../libsdcc_mc32l/fsdiv.c:73:       iTemp32 [k46 lr32:33 so:0]{ ia0 a2p0 re0 rm0 nos0 ru0 dp0}{volatile-long-int fixed}[r0x1006 r0x1007 r0x1008 r0x1009 ] = @[iTemp30 [k43 lr31:32 so:0]{ ia1 a2p0 re0 rm1 nos0 ru0 dp0}{volatile-long-int near* fixed}[remat] + 0x0 {const-unsigned-char literal}]
008D   5800           00379         MOVAR   (___fsdiv_fl2_1_22 + 0)
008E   5600           00380         MOVRA   r0x1012
008F   5600           00381         MOVRA   r0x100D
0090   5800           00382         MOVAR   (___fsdiv_fl2_1_22 + 1)
0091   5600           00383         MOVRA   r0x1013
0092   5600           00384         MOVRA   r0x100C
0093   5800           00385         MOVAR   (___fsdiv_fl2_1_22 + 2)
0094   5600           00386         MOVRA   r0x1014
0095   5600           00387         MOVRA   r0x1010
0096   5800           00388         MOVAR   (___fsdiv_fl2_1_22 + 3)
0097   5600           00389         MOVRA   r0x1015
0098   5600           00390         MOVRA   r0x1011
                      00391 ;;[ICODE] ../../libsdcc_mc32l/fsdiv.c:73:       iTemp33 [k47 lr33:34 so:0]{ ia0 a2p0 re0 rm0 nos0 ru0 dp0}{unsigned-long-int fixed}[r0x100A r0x100B r0x100C r0x100D ] = (unsigned-long-int fixed)iTemp32 [k46 lr32:33 so:0]{ ia0 a2p0 re0 rm0 nos0 ru0 dp0}{volatile-long-int fixed}[r0x1006 r0x1007 r0x1008 r0x1009 ]
                      00392 ;;134   MOVAR   r0x100D
                      00393 ;;108   MOVAR   r0x100C
                      00394 ;;109   MOVAR   r0x1010
                      00395 ;;110   MOVAR   r0x1011
                      00396 ;;[ICODE] ../../libsdcc_mc32l/fsdiv.c:73:       iTemp34 [k48 lr34:35 so:0]{ ia0 a2p0 re0 rm0 nos0 ru0 dp0}{char fixed}[r0x1006 ] = gabit iTemp33 [k47 lr33:34 so:0]{ ia0 a2p0 re0 rm0 nos0 ru0 dp0}{unsigned-long-int fixed}[r0x100A r0x100B r0x100C r0x100D ]
0099   5800           00397         MOVAR   r0x1015
009A   3E80           00398         ANDAI   0x80
009B   E5B7           00399         JBSET   PFLAG,2
009C   3C01           00400         MOVAI   0x01
009D   5600           00401         MOVRA   r0x100D
                      00402 ;;[ICODE] ../../libsdcc_mc32l/fsdiv.c:73:       iTemp24 [k35 lr35:118 so:0]{ ia0 a2p0 re1 rm0 nos0 ru0 dp0}{char fixed}{ sir@ ___fsdiv_sign_1_22}[r0x1002 ] = iTemp29 [k42 lr30:35 so:0]{ ia0 a2p0 re0 rm0 nos0 ru0 dp0}{char fixed}[r0x1002 ] ^ iTemp34 [k48 lr34:35 so:0]{ ia0 a2p0 re0 rm0 nos0 ru0 dp0}{char fixed}[r0x1006 ]
009E   5800           00403         MOVAR   r0x100D
009F   4200           00404         XORRA   r0x1009
                      00405 ;;[ICODE] ../../libsdcc_mc32l/fsdiv.c:76:       iTemp36 [k50 lr37:38 so:0]{ ia0 a2p0 re0 rm1 nos0 ru0 dp0}{volatile-long-int near* fixed}[remat] = &[___fsdiv_fl2_1_22 [k10 lr0:0 so:0]{ ia0 a2p0 re0 rm0 nos0 ru0 dp0}{volatile-struct float_long fixed}]
                      00406 ;;[ICODE] ../../libsdcc_mc32l/fsdiv.c:76:       iTemp38 [k53 lr38:39 so:0]{ ia0 a2p0 re0 rm0 nos0 ru0 dp0}{volatile-long-int fixed}[r0x1006 r0x100A r0x100B r0x100C ] = @[iTemp36 [k50 lr37:38 so:0]{ ia1 a2p0 re0 rm1 nos0 ru0 dp0}{volatile-long-int near* fixed}[remat] + 0x0 {const-unsigned-char literal}]
                      00407 ;       .line   76; "../../libsdcc_mc32l/fsdiv.c"       if (!fl2.l)
00A0   5800           00408         MOVAR   (___fsdiv_fl2_1_22 + 0)
00A1   5600           00409         MOVRA   r0x100D
00A2   5800           00410         MOVAR   (___fsdiv_fl2_1_22 + 1)
00A3   5600           00411         MOVRA   r0x1012
00A4   5800           00412         MOVAR   (___fsdiv_fl2_1_22 + 2)
00A5   5600           00413         MOVRA   r0x1013
00A6   5800           00414         MOVAR   (___fsdiv_fl2_1_22 + 3)
00A7   5600           00415         MOVRA   r0x1014
                      00416 ;;[ICODE] ../../libsdcc_mc32l/fsdiv.c:76:       if iTemp38 [k53 lr38:39 so:0]{ ia0 a2p0 re0 rm0 nos0 ru0 dp0}{volatile-long-int fixed}[r0x1006 r0x100A r0x100B r0x100C ] != 0 goto _iffalse_0($2)
00A8   5800           00417         MOVAR   r0x100D
00A9   5C00           00418         ORAR    r0x1012
00AA   5C00           00419         ORAR    r0x1013
00AB   5C00           00420         ORAR    r0x1014
00AC   E5B7           00421         JBSET   PFLAG,2
00AD   2000 2300      00422         LGOTO   _00106_DS_
                      00423 ;;[ICODE] ../../libsdcc_mc32l/fsdiv.c:78:       iTemp39 [k54 lr40:41 so:0]{ ia0 a2p0 re0 rm1 nos0 ru0 dp0}{volatile-long-int near* fixed}[remat] = &[___fsdiv_fl2_1_22 [k10 lr0:0 so:0]{ ia0 a2p0 re0 rm0 nos0 ru0 dp0}{volatile-struct float_long fixed}]
                      00424 ;;[ICODE] ../../libsdcc_mc32l/fsdiv.c:78:       *(iTemp39 [k54 lr40:41 so:0]{ ia1 a2p0 re0 rm1 nos0 ru0 dp0}{volatile-long-int near* fixed}[remat]) := 0x7fc00000 {const-long-int literal}
                      00425 ;;gen.c:6374: size=3/4, offset=0, AOP_TYPE(res)=8
                      00426 ;       .line   78; "../../libsdcc_mc32l/fsdiv.c"       fl2.l = 0x7FC00000;
00AF   7600           00427         CLRR    (___fsdiv_fl2_1_22 + 0)
                      00428 ;;gen.c:6374: size=2/4, offset=1, AOP_TYPE(res)=8
00B0   7600           00429         CLRR    (___fsdiv_fl2_1_22 + 1)
                      00430 ;;gen.c:6374: size=1/4, offset=2, AOP_TYPE(res)=8
00B1   3CC0           00431         MOVAI   0xc0
00B2   5600           00432         MOVRA   (___fsdiv_fl2_1_22 + 2)
                      00433 ;;gen.c:6374: size=0/4, offset=3, AOP_TYPE(res)=8
00B3   3C7F           00434         MOVAI   0x7f
00B4   5600           00435         MOVRA   (___fsdiv_fl2_1_22 + 3)
                      00436 ;;[ICODE] ../../libsdcc_mc32l/fsdiv.c:79:       iTemp41 [k57 lr42:43 so:0]{ ia0 a2p0 re0 rm1 nos0 ru0 dp0}{volatile-float near* fixed}[remat] = &[___fsdiv_fl2_1_22 [k10 lr0:0 so:0]{ ia0 a2p0 re0 rm0 nos0 ru0 dp0}{volatile-struct float_long fixed}]
                      00437 ;;[ICODE] ../../libsdcc_mc32l/fsdiv.c:79:       iTemp43 [k60 lr43:44 so:0]{ ia0 a2p0 re0 rm0 nos0 ru1 dp0}{volatile-float fixed}[r0x1006 r0x100A r0x100B r0x100C ] = @[iTemp41 [k57 lr42:43 so:0]{ ia1 a2p0 re0 rm1 nos0 ru0 dp0}{volatile-float near* fixed}[remat] + 0x0 {const-unsigned-char literal}]
                      00438 ;       .line   79; "../../libsdcc_mc32l/fsdiv.c"       return (fl2.f);
00B5   5800           00439         MOVAR   (___fsdiv_fl2_1_22 + 0)
00B6   5600           00440         MOVRA   r0x100D
00B7   5800           00441         MOVAR   (___fsdiv_fl2_1_22 + 1)
00B8   5600           00442         MOVRA   r0x1012
00B9   5800           00443         MOVAR   (___fsdiv_fl2_1_22 + 2)
00BA   5600           00444         MOVRA   r0x1013
00BB   5800           00445         MOVAR   (___fsdiv_fl2_1_22 + 3)
00BC   5600           00446         MOVRA   r0x1014
                      00447 ;;[ICODE] ../../libsdcc_mc32l/fsdiv.c:79:       ret iTemp43 [k60 lr43:44 so:0]{ ia0 a2p0 re0 rm0 nos0 ru1 dp0}{volatile-float fixed}[r0x1006 r0x100A r0x100B r0x100C ]
00BD   5800           00448         MOVAR   r0x100D
00BE   5600           00449         MOVRA   STK02
00BF   5800           00450         MOVAR   r0x1012
00C0   5600           00451         MOVRA   STK01
00C1   5800           00452         MOVAR   r0x1013
00C2   5600           00453         MOVRA   STK00
00C3   5800           00454         MOVAR   r0x1014
00C4   2000 2300      00455         LGOTO   _00122_DS_
                      00456 ;;[ICODE] ../../libsdcc_mc32l/fsdiv.c:79:  _iffalse_0($2) :
                      00457 ;;[ICODE] ../../libsdcc_mc32l/fsdiv.c:83:       iTemp44 [k61 lr46:47 so:0]{ ia0 a2p0 re0 rm1 nos0 ru0 dp0}{volatile-long-int near* fixed}[remat] = &[___fsdiv_fl1_1_22 [k6 lr0:0 so:0]{ ia0 a2p0 re0 rm0 nos0 ru0 dp0}{volatile-struct float_long fixed}]
                      00458 ;;[ICODE] ../../libsdcc_mc32l/fsdiv.c:83:       iTemp46 [k64 lr47:48 so:0]{ ia0 a2p0 re0 rm0 nos0 ru0 dp0}{volatile-long-int fixed}[r0x1006 r0x100A r0x100B r0x100C ] = @[iTemp44 [k61 lr46:47 so:0]{ ia1 a2p0 re0 rm1 nos0 ru0 dp0}{volatile-long-int near* fixed}[remat] + 0x0 {const-unsigned-char literal}]
00C6                  00459 _00106_DS_
                      00460 ;       .line   83; "../../libsdcc_mc32l/fsdiv.c"       if (!fl1.l)
00C6   5800           00461         MOVAR   (___fsdiv_fl1_1_22 + 0)
00C7   5600           00462         MOVRA   r0x100D
00C8   5800           00463         MOVAR   (___fsdiv_fl1_1_22 + 1)
00C9   5600           00464         MOVRA   r0x1012
00CA   5800           00465         MOVAR   (___fsdiv_fl1_1_22 + 2)
00CB   5600           00466         MOVRA   r0x1013
00CC   5800           00467         MOVAR   (___fsdiv_fl1_1_22 + 3)
00CD   5600           00468         MOVRA   r0x1014
                      00469 ;;[ICODE] ../../libsdcc_mc32l/fsdiv.c:83:       if iTemp46 [k64 lr47:48 so:0]{ ia0 a2p0 re0 rm0 nos0 ru0 dp0}{volatile-long-int fixed}[r0x1006 r0x100A r0x100B r0x100C ] != 0 goto _iffalse_1($4)
00CE   5800           00470         MOVAR   r0x100D
00CF   5C00           00471         ORAR    r0x1012
00D0   5C00           00472         ORAR    r0x1013
00D1   5C00           00473         ORAR    r0x1014
00D2   E5B7           00474         JBSET   PFLAG,2
00D3   2000 2300      00475         LGOTO   _00108_DS_
                      00476 ;;[ICODE] ../../libsdcc_mc32l/fsdiv.c:84:       ret 0 {float literal}
                      00477 ;       .line   84; "../../libsdcc_mc32l/fsdiv.c"       return (0);
00D5   3C00           00478         MOVAI   0x00
00D6   5600           00479         MOVRA   STK02
00D7   3C00           00480         MOVAI   0x00
00D8   5600           00481         MOVRA   STK01
00D9   3C00           00482         MOVAI   0x00
00DA   5600           00483         MOVRA   STK00
00DB   3C00           00484         MOVAI   0x00
00DC   2000 2300      00485         LGOTO   _00122_DS_
                      00486 ;;[ICODE] ../../libsdcc_mc32l/fsdiv.c:84:  _iffalse_1($4) :
                      00487 ;;[ICODE] ../../libsdcc_mc32l/fsdiv.c:87:       iTemp48 [k67 lr51:52 so:0]{ ia0 a2p0 re0 rm1 nos0 ru0 dp0}{volatile-long-int near* fixed}[remat] = &[___fsdiv_fl1_1_22 [k6 lr0:0 so:0]{ ia0 a2p0 re0 rm0 nos0 ru0 dp0}{volatile-struct float_long fixed}]
                      00488 ;;[ICODE] ../../libsdcc_mc32l/fsdiv.c:87:       iTemp50 [k70 lr52:53 so:0]{ ia0 a2p0 re0 rm0 nos0 ru0 dp0}{volatile-long-int fixed}[r0x1006 r0x100A r0x100B r0x100C ] = @[iTemp48 [k67 lr51:52 so:0]{ ia1 a2p0 re0 rm1 nos0 ru0 dp0}{volatile-long-int near* fixed}[remat] + 0x0 {const-unsigned-char literal}]
00DE                  00489 _00108_DS_
                      00490 ;       .line   87; "../../libsdcc_mc32l/fsdiv.c"       mant1 = MANT (fl1.l);
00DE   5800           00491         MOVAR   (___fsdiv_fl1_1_22 + 0)
00DF   5600           00492         MOVRA   r0x1015
00E0   5600           00493         MOVRA   r0x100D
00E1   5800           00494         MOVAR   (___fsdiv_fl1_1_22 + 1)
00E2   5600           00495         MOVRA   r0x1016
00E3   5600           00496         MOVRA   r0x1012
00E4   5800           00497         MOVAR   (___fsdiv_fl1_1_22 + 2)
00E5   5600           00498         MOVRA   r0x1017
00E6   5600           00499         MOVRA   r0x1013
00E7   5800           00500         MOVAR   (___fsdiv_fl1_1_22 + 3)
00E8   5600           00501         MOVRA   r0x1018
00E9   5600           00502         MOVRA   r0x1014
                      00503 ;;[ICODE] ../../libsdcc_mc32l/fsdiv.c:87:       iTemp51 [k71 lr53:54 so:0]{ ia0 a2p0 re0 rm0 nos0 ru0 dp0}{unsigned-long-int register}[r0x100D r0x100E r0x100F r0x1010 ] = (unsigned-long-int register)iTemp50 [k70 lr52:53 so:0]{ ia0 a2p0 re0 rm0 nos0 ru0 dp0}{volatile-long-int fixed}[r0x1006 r0x100A r0x100B r0x100C ]
                      00504 ;;127   MOVAR   r0x100D
                      00505 ;;128   MOVAR   r0x1012
                      00506 ;;112   MOVAR   r0x1013
                      00507 ;;135   MOVAR   r0x1014
                      00508 ;;[ICODE] ../../libsdcc_mc32l/fsdiv.c:87:       iTemp52 [k72 lr54:55 so:0]{ ia0 a2p0 re0 rm0 nos0 ru0 dp0}{unsigned-long-int register}[r0x1006 r0x100A r0x100B r0x100C ] = iTemp51 [k71 lr53:54 so:0]{ ia0 a2p0 re0 rm0 nos0 ru0 dp0}{unsigned-long-int register}[r0x100D r0x100E r0x100F r0x1010 ] & 0x7fffff {unsigned-long-int literal}
00EA   5800           00509         MOVAR   r0x1015
00EB   5600           00510         MOVRA   r0x100D
00EC   5800           00511         MOVAR   r0x1016
00ED   5600           00512         MOVRA   r0x1012
00EE   3C7F           00513         MOVAI   0x7f
00EF   7800           00514         ANDAR   r0x1017
00F0   5600           00515         MOVRA   r0x1013
00F1   7600           00516         CLRR    r0x1014
                      00517 ;;[ICODE] ../../libsdcc_mc32l/fsdiv.c:87:       iTemp47 [k65 lr55:87 so:0]{ ia0 a2p0 re1 rm0 nos0 ru0 dp0}{long-int fixed}{ sir@ ___fsdiv_mant1_1_22}[r0x1006 r0x100A r0x100B r0x100C ] = iTemp52 [k72 lr54:55 so:0]{ ia0 a2p0 re0 rm0 nos0 ru0 dp0}{unsigned-long-int register}[r0x1006 r0x100A r0x100B r0x100C ] | 0x800000 {unsigned-long-int literal}
00F2   CE00           00518         BSET    r0x1013,7
                      00519 ;;[ICODE] ../../libsdcc_mc32l/fsdiv.c:88:       iTemp55 [k76 lr57:58 so:0]{ ia0 a2p0 re0 rm1 nos0 ru0 dp0}{volatile-long-int near* fixed}[remat] = &[___fsdiv_fl2_1_22 [k10 lr0:0 so:0]{ ia0 a2p0 re0 rm0 nos0 ru0 dp0}{volatile-struct float_long fixed}]
                      00520 ;;[ICODE] ../../libsdcc_mc32l/fsdiv.c:88:       iTemp57 [k79 lr58:59 so:0]{ ia0 a2p0 re0 rm0 nos0 ru0 dp0}{volatile-long-int fixed}[r0x100D r0x100E r0x100F r0x1010 ] = @[iTemp55 [k76 lr57:58 so:0]{ ia1 a2p0 re0 rm1 nos0 ru0 dp0}{volatile-long-int near* fixed}[remat] + 0x0 {const-unsigned-char literal}]
                      00521 ;       .line   88; "../../libsdcc_mc32l/fsdiv.c"       mant2 = MANT (fl2.l);
00F3   5800           00522         MOVAR   (___fsdiv_fl2_1_22 + 0)
00F4   5600           00523         MOVRA   r0x1015
00F5   5800           00524         MOVAR   (___fsdiv_fl2_1_22 + 1)
00F6   5600           00525         MOVRA   r0x101A
00F7   5600           00526         MOVRA   r0x1016
00F8   5800           00527         MOVAR   (___fsdiv_fl2_1_22 + 2)
00F9   5600           00528         MOVRA   r0x101B
00FA   5600           00529         MOVRA   r0x1017
00FB   5800           00530         MOVAR   (___fsdiv_fl2_1_22 + 3)
00FC   5600           00531         MOVRA   r0x101C
00FD   5600           00532         MOVRA   r0x1018
                      00533 ;;[ICODE] ../../libsdcc_mc32l/fsdiv.c:88:       iTemp58 [k80 lr59:60 so:0]{ ia0 a2p0 re0 rm0 nos0 ru0 dp0}{unsigned-long-int register}[r0x1011 r0x1012 r0x1013 r0x1014 ] = (unsigned-long-int register)iTemp57 [k79 lr58:59 so:0]{ ia0 a2p0 re0 rm0 nos0 ru0 dp0}{volatile-long-int fixed}[r0x100D r0x100E r0x100F r0x1010 ]
00FE   5800           00534         MOVAR   r0x1015
00FF   5600           00535         MOVRA   r0x1015
0100   5600           00536         MOVRA   r0x1019
                      00537 ;;117   MOVAR   r0x1016
                      00538 ;;118   MOVAR   r0x1017
                      00539 ;;119   MOVAR   r0x1018
                      00540 ;;[ICODE] ../../libsdcc_mc32l/fsdiv.c:88:       iTemp59 [k81 lr60:61 so:0]{ ia0 a2p0 re0 rm0 nos0 ru0 dp0}{unsigned-long-int register}[r0x100D r0x100E r0x100F r0x1010 ] = iTemp58 [k80 lr59:60 so:0]{ ia0 a2p0 re0 rm0 nos0 ru0 dp0}{unsigned-long-int register}[r0x1011 r0x1012 r0x1013 r0x1014 ] & 0x7fffff {unsigned-long-int literal}
                      00541 ;;120   MOVAR   r0x1019
0101   5800           00542         MOVAR   r0x101A
0102   5600           00543         MOVRA   r0x1016
0103   3C7F           00544         MOVAI   0x7f
0104   7800           00545         ANDAR   r0x101B
0105   5600           00546         MOVRA   r0x1017
0106   7600           00547         CLRR    r0x1018
                      00548 ;;[ICODE] ../../libsdcc_mc32l/fsdiv.c:88:       iTemp54 [k74 lr61:87 so:0]{ ia0 a2p0 re1 rm0 nos0 ru0 dp0}{long-int fixed}{ sir@ ___fsdiv_mant2_1_22}[r0x100D r0x100E r0x100F r0x1010 ] = iTemp59 [k81 lr60:61 so:0]{ ia0 a2p0 re0 rm0 nos0 ru0 dp0}{unsigned-long-int register}[r0x100D r0x100E r0x100F r0x1010 ] | 0x800000 {unsigned-long-int literal}
0107   CE00           00549         BSET    r0x1017,7
                      00550 ;;[ICODE] ../../libsdcc_mc32l/fsdiv.c:91:       iTemp61 [k83 lr63:64 so:0]{ ia0 a2p0 re0 rm0 nos0 ru0 dp0}{char fixed} = iTemp47 [k65 lr55:87 so:0]{ ia0 a2p0 re1 rm0 nos0 ru0 dp0}{long-int fixed}{ sir@ ___fsdiv_mant1_1_22}[r0x1006 r0x100A r0x100B r0x100C ] < iTemp54 [k74 lr61:87 so:0]{ ia0 a2p0 re1 rm0 nos0 ru0 dp0}{long-int fixed}{ sir@ ___fsdiv_mant2_1_22}[r0x100D r0x100E r0x100F r0x1010 ]
0108   3C00           00551         MOVAI   0x00
0109   3F80           00552         ADDAI   0x80
010A   5600           00553         MOVRA   r0x101D
010B   3C00           00554         MOVAI   0x00
010C   3F80           00555         ADDAI   0x80
010D   4800           00556         RSUBAR  r0x101D
010E   E5B7           00557         JBSET   PFLAG,2
010F   2000 2300      00558         LGOTO   _00152_DS_
0111   5800           00559         MOVAR   r0x1017
0112   4800           00560         RSUBAR  r0x1013
0113   E5B7           00561         JBSET   PFLAG,2
0114   2000 2300      00562         LGOTO   _00152_DS_
0116   5800           00563         MOVAR   r0x1016
0117   4800           00564         RSUBAR  r0x1012
0118   E5B7           00565         JBSET   PFLAG,2
0119   2000 2300      00566         LGOTO   _00152_DS_
011B   5800           00567         MOVAR   r0x1015
011C   4800           00568         RSUBAR  r0x100D
011D                  00569 _00152_DS_
011D   F1B7           00570         JBCLR   PFLAG,0
011E   2000 2300      00571         LGOTO   _00110_DS_
                      00572 ;;genSkipc:3195: created from rifx:00DE608C
                      00573 ;;[ICODE] ../../libsdcc_mc32l/fsdiv.c:91:       if iTemp61 [k83 lr63:64 so:0]{ ia0 a2p0 re0 rm0 nos0 ru0 dp0}{char fixed} == 0 goto _iffalse_2($6)
                      00574 ;;[ICODE] ../../libsdcc_mc32l/fsdiv.c:93:       iTemp47 [k65 lr55:87 so:0]{ ia0 a2p0 re1 rm0 nos0 ru0 dp0}{long-int fixed}{ sir@ ___fsdiv_mant1_1_22}[r0x1006 r0x100A r0x100B r0x100C ] = iTemp47 [k65 lr55:87 so:0]{ ia0 a2p0 re1 rm0 nos0 ru0 dp0}{long-int fixed}{ sir@ ___fsdiv_mant1_1_22}[r0x1006 r0x100A r0x100B r0x100C ] << 0x1 {const-unsigned-char literal}
                      00575 ;       .line   93; "../../libsdcc_mc32l/fsdiv.c"       mant1 <<= 1;
0120   D1B7           00576         BCLR    PFLAG,0
0121   5200           00577         RLR     r0x100D
0122   5200           00578         RLR     r0x1012
0123   5200           00579         RLR     r0x1013
0124   5200           00580         RLR     r0x1014
                      00581 ;;[ICODE] ../../libsdcc_mc32l/fsdiv.c:94:       iTemp6 [k14 lr14:124 so:0]{ ia0 a2p0 re1 rm0 nos0 ru0 dp0}{int fixed}{ sir@ ___fsdiv_exp_1_22}[r0x1000 r0x1001 ] = iTemp6 [k14 lr14:124 so:0]{ ia0 a2p0 re1 rm0 nos0 ru0 dp0}{int fixed}{ sir@ ___fsdiv_exp_1_22}[r0x1000 r0x1001 ] - 0x1 {const-unsigned-char literal}
                      00582 ;       .line   94; "../../libsdcc_mc32l/fsdiv.c"       exp--;
0125   3CFF           00583         MOVAI   0xff
0126   7E00           00584         ADDRA   r0x100B
0127   E1B7           00585         JBSET   PFLAG,0
0128   6E00           00586         DECR    r0x100A
                      00587 ;;[ICODE] ../../libsdcc_mc32l/fsdiv.c:94:  _iffalse_2($6) :
                      00588 ;;[ICODE] ../../libsdcc_mc32l/fsdiv.c:98:       iTemp65 [k87 lr70:87 so:0]{ ia0 a2p0 re1 rm0 nos0 ru0 dp0}{unsigned-long-int fixed}{ sir@ ___fsdiv_mask_1_22}[r0x1011 r0x1012 r0x1013 r0x1014 ] := 0x1000000 {const-long-int literal}
0129                  00589 _00110_DS_
                      00590 ;       .line   98; "../../libsdcc_mc32l/fsdiv.c"       mask = 0x1000000;
0129   7600           00591         CLRR    r0x1019
012A   7600           00592         CLRR    r0x101A
012B   7600           00593         CLRR    r0x101B
012C   3C01           00594         MOVAI   0x01
012D   5600           00595         MOVRA   r0x101C
                      00596 ;;[ICODE] ../../libsdcc_mc32l/fsdiv.c:99:       iTemp66 [k89 lr71:127 so:0]{ ia0 a2p0 re1 rm0 nos0 ru0 dp0}{long-int fixed}{ sir@ ___fsdiv_result_1_22}[r0x1015 r0x1016 r0x1017 r0x1018 ] := 0x0 {long-int literal}
                      00597 ;       .line   99; "../../libsdcc_mc32l/fsdiv.c"       result = 0;
012E   7600           00598         CLRR    r0x101D
012F   7600           00599         CLRR    r0x101E
0130   7600           00600         CLRR    r0x101F
0131   7600           00601         CLRR    r0x1020
                      00602 ;;[ICODE] ../../libsdcc_mc32l/fsdiv.c:100:  _whilecontinue_0($9) :
                      00603 ;;[ICODE] ../../libsdcc_mc32l/fsdiv.c:100:      if iTemp65 [k87 lr70:87 so:0]{ ia0 a2p0 re1 rm0 nos0 ru0 dp0}{unsigned-long-int fixed}{ sir@ ___fsdiv_mask_1_22}[r0x1011 r0x1012 r0x1013 r0x1014 ] == 0 goto _whilebreak_0($11)
0132                  00604 _00113_DS_
                      00605 ;       .line   100; "../../libsdcc_mc32l/fsdiv.c"      while (mask)
0132   5800           00606         MOVAR   r0x1019
0133   5C00           00607         ORAR    r0x101A
0134   5C00           00608         ORAR    r0x101B
0135   5C00           00609         ORAR    r0x101C
0136   F5B7           00610         JBCLR   PFLAG,2
0137   2000 2300      00611         LGOTO   _00115_DS_
                      00612 ;;[ICODE] ../../libsdcc_mc32l/fsdiv.c:102:      iTemp67 [k91 lr75:76 so:0]{ ia0 a2p0 re0 rm0 nos0 ru0 dp0}{char fixed} = iTemp47 [k65 lr55:87 so:0]{ ia0 a2p0 re1 rm0 nos0 ru0 dp0}{long-int fixed}{ sir@ ___fsdiv_mant1_1_22}[r0x1006 r0x100A r0x100B r0x100C ] < iTemp54 [k74 lr61:87 so:0]{ ia0 a2p0 re1 rm0 nos0 ru0 dp0}{long-int fixed}{ sir@ ___fsdiv_mant2_1_22}[r0x100D r0x100E r0x100F r0x1010 ]
                      00613 ;       .line   102; "../../libsdcc_mc32l/fsdiv.c"      if (mant1 >= mant2)
0139   5800           00614         MOVAR   r0x1014
013A   3F80           00615         ADDAI   0x80
013B   5600           00616         MOVRA   r0x1021
013C   5800           00617         MOVAR   r0x1018
013D   3F80           00618         ADDAI   0x80
013E   4800           00619         RSUBAR  r0x1021
013F   E5B7           00620         JBSET   PFLAG,2
0140   2000 2300      00621         LGOTO   _00153_DS_
0142   5800           00622         MOVAR   r0x1017
0143   4800           00623         RSUBAR  r0x1013
0144   E5B7           00624         JBSET   PFLAG,2
0145   2000 2300      00625         LGOTO   _00153_DS_
0147   5800           00626         MOVAR   r0x1016
0148   4800           00627         RSUBAR  r0x1012
0149   E5B7           00628         JBSET   PFLAG,2
014A   2000 2300      00629         LGOTO   _00153_DS_
014C   5800           00630         MOVAR   r0x1015
014D   4800           00631         RSUBAR  r0x100D
014E                  00632 _00153_DS_
014E   E1B7           00633         JBSET   PFLAG,0
014F   2000 2300      00634         LGOTO   _00112_DS_
                      00635 ;;genSkipc:3195: created from rifx:00DE608C
                      00636 ;;[ICODE] ../../libsdcc_mc32l/fsdiv.c:102:      if iTemp67 [k91 lr75:76 so:0]{ ia0 a2p0 re0 rm0 nos0 ru0 dp0}{char fixed} != 0 goto _iffalse_3($8)
                      00637 ;;[ICODE] ../../libsdcc_mc32l/fsdiv.c:104:      iTemp68 [k92 lr77:78 so:0]{ ia0 a2p0 re0 rm0 nos0 ru0 dp0}{unsigned-long-int fixed}[r0x1019 r0x101A r0x101B r0x101C ] = (unsigned-long-int fixed)iTemp66 [k89 lr71:127 so:0]{ ia0 a2p0 re1 rm0 nos0 ru0 dp0}{long-int fixed}{ sir@ ___fsdiv_result_1_22}[r0x1015 r0x1016 r0x1017 r0x1018 ]
                      00638 ;       .line   104; "../../libsdcc_mc32l/fsdiv.c"      result |= mask;
0151   5800           00639         MOVAR   r0x101D
0152   5600           00640         MOVRA   r0x1021
0153   5800           00641         MOVAR   r0x101E
0154   5600           00642         MOVRA   r0x1022
0155   5800           00643         MOVAR   r0x101F
0156   5600           00644         MOVRA   r0x1023
0157   5800           00645         MOVAR   r0x1020
0158   5600           00646         MOVRA   r0x1024
                      00647 ;;[ICODE] ../../libsdcc_mc32l/fsdiv.c:104:      iTemp66 [k89 lr71:127 so:0]{ ia0 a2p0 re1 rm0 nos0 ru0 dp0}{long-int fixed}{ sir@ ___fsdiv_result_1_22}[r0x1015 r0x1016 r0x1017 r0x1018 ] = iTemp68 [k92 lr77:78 so:0]{ ia0 a2p0 re0 rm0 nos0 ru0 dp0}{unsigned-long-int fixed}[r0x1019 r0x101A r0x101B r0x101C ] | iTemp65 [k87 lr70:87 so:0]{ ia0 a2p0 re1 rm0 nos0 ru0 dp0}{unsigned-long-int fixed}{ sir@ ___fsdiv_mask_1_22}[r0x1011 r0x1012 r0x1013 r0x1014 ]
0159   5800           00648         MOVAR   r0x1019
015A   5C00           00649         ORAR    r0x1021
015B   5600           00650         MOVRA   r0x101D
015C   5800           00651         MOVAR   r0x101A
015D   5C00           00652         ORAR    r0x1022
015E   5600           00653         MOVRA   r0x101E
015F   5800           00654         MOVAR   r0x101B
0160   5C00           00655         ORAR    r0x1023
0161   5600           00656         MOVRA   r0x101F
0162   5800           00657         MOVAR   r0x101C
0163   5C00           00658         ORAR    r0x1024
0164   5600           00659         MOVRA   r0x1020
                      00660 ;;[ICODE] ../../libsdcc_mc32l/fsdiv.c:105:      iTemp47 [k65 lr55:87 so:0]{ ia0 a2p0 re1 rm0 nos0 ru0 dp0}{long-int fixed}{ sir@ ___fsdiv_mant1_1_22}[r0x1006 r0x100A r0x100B r0x100C ] = iTemp47 [k65 lr55:87 so:0]{ ia0 a2p0 re1 rm0 nos0 ru0 dp0}{long-int fixed}{ sir@ ___fsdiv_mant1_1_22}[r0x1006 r0x100A r0x100B r0x100C ] - iTemp54 [k74 lr61:87 so:0]{ ia0 a2p0 re1 rm0 nos0 ru0 dp0}{long-int fixed}{ sir@ ___fsdiv_mant2_1_22}[r0x100D r0x100E r0x100F r0x1010 ]
                      00661 ;       .line   105; "../../libsdcc_mc32l/fsdiv.c"      mant1 -= mant2;
0165   5800           00662         MOVAR   r0x1015
0166   4A00           00663         RSUBRA  r0x100D
0167   5800           00664         MOVAR   r0x1016
0168   E1B7           00665         JBSET   PFLAG,0
0169   6000           00666         JZAR    r0x1016
016A   4A00           00667         RSUBRA  r0x1012
016B   5800           00668         MOVAR   r0x1017
016C   E1B7           00669         JBSET   PFLAG,0
016D   6000           00670         JZAR    r0x1017
016E   4A00           00671         RSUBRA  r0x1013
016F   5800           00672         MOVAR   r0x1018
0170   E1B7           00673         JBSET   PFLAG,0
0171   6000           00674         JZAR    r0x1018
0172   4A00           00675         RSUBRA  r0x1014
                      00676 ;;[ICODE] ../../libsdcc_mc32l/fsdiv.c:105:  _iffalse_3($8) :
                      00677 ;;[ICODE] ../../libsdcc_mc32l/fsdiv.c:107:      iTemp47 [k65 lr55:87 so:0]{ ia0 a2p0 re1 rm0 nos0 ru0 dp0}{long-int fixed}{ sir@ ___fsdiv_mant1_1_22}[r0x1006 r0x100A r0x100B r0x100C ] = iTemp47 [k65 lr55:87 so:0]{ ia0 a2p0 re1 rm0 nos0 ru0 dp0}{long-int fixed}{ sir@ ___fsdiv_mant1_1_22}[r0x1006 r0x100A r0x100B r0x100C ] << 0x1 {const-unsigned-char literal}
0173                  00678 _00112_DS_
                      00679 ;       .line   107; "../../libsdcc_mc32l/fsdiv.c"      mant1 <<= 1;
0173   D1B7           00680         BCLR    PFLAG,0
0174   5200           00681         RLR     r0x100D
0175   5200           00682         RLR     r0x1012
0176   5200           00683         RLR     r0x1013
0177   5200           00684         RLR     r0x1014
                      00685 ;;[ICODE] ../../libsdcc_mc32l/fsdiv.c:108:      iTemp65 [k87 lr70:87 so:0]{ ia0 a2p0 re1 rm0 nos0 ru0 dp0}{unsigned-long-int fixed}{ sir@ ___fsdiv_mask_1_22}[r0x1011 r0x1012 r0x1013 r0x1014 ] = iTemp65 [k87 lr70:87 so:0]{ ia0 a2p0 re1 rm0 nos0 ru0 dp0}{unsigned-long-int fixed}{ sir@ ___fsdiv_mask_1_22}[r0x1011 r0x1012 r0x1013 r0x1014 ] >> 0x1 {const-unsigned-char literal}
                      00686 ;;shiftRight_Left2ResultLit:5216: shCount=1, size=4, sign=0, same=1, offr=0
                      00687 ;       .line   108; "../../libsdcc_mc32l/fsdiv.c"      mask >>= 1;
0178   D1B7           00688         BCLR    PFLAG,0
0179   4E00           00689         RRR     r0x101C
017A   4E00           00690         RRR     r0x101B
017B   4E00           00691         RRR     r0x101A
017C   4E00           00692         RRR     r0x1019
                      00693 ;;[ICODE] ../../libsdcc_mc32l/fsdiv.c:108:       goto _whilecontinue_0($9)
017D   2000 2300      00694         LGOTO   _00113_DS_
                      00695 ;;[ICODE] ../../libsdcc_mc32l/fsdiv.c:108:  _whilebreak_0($11) :
                      00696 ;;[ICODE] ../../libsdcc_mc32l/fsdiv.c:112:      iTemp66 [k89 lr71:127 so:0]{ ia0 a2p0 re1 rm0 nos0 ru0 dp0}{long-int fixed}{ sir@ ___fsdiv_result_1_22}[r0x1015 r0x1016 r0x1017 r0x1018 ] = iTemp66 [k89 lr71:127 so:0]{ ia0 a2p0 re1 rm0 nos0 ru0 dp0}{long-int fixed}{ sir@ ___fsdiv_result_1_22}[r0x1015 r0x1016 r0x1017 r0x1018 ] + 0x1 {long-int literal}
017F                  00697 _00115_DS_
                      00698 ;       .line   112; "../../libsdcc_mc32l/fsdiv.c"      result += 1;
017F   6600           00699         INCR    r0x101D
0180   F5B7           00700         JBCLR   PFLAG,2
0181   6600           00701         INCR    r0x101E
0182   F5B7           00702         JBCLR   PFLAG,2
0183   6600           00703         INCR    r0x101F
0184   F5B7           00704         JBCLR   PFLAG,2
0185   6600           00705         INCR    r0x1020
                      00706 ;;[ICODE] ../../libsdcc_mc32l/fsdiv.c:115:      iTemp6 [k14 lr14:124 so:0]{ ia0 a2p0 re1 rm0 nos0 ru0 dp0}{int fixed}{ sir@ ___fsdiv_exp_1_22}[r0x1000 r0x1001 ] = iTemp6 [k14 lr14:124 so:0]{ ia0 a2p0 re1 rm0 nos0 ru0 dp0}{int fixed}{ sir@ ___fsdiv_exp_1_22}[r0x1000 r0x1001 ] + 0x1 {const-unsigned-char literal}
                      00707 ;       .line   115; "../../libsdcc_mc32l/fsdiv.c"      exp++;
0186   6600           00708         INCR    r0x100B
0187   F5B7           00709         JBCLR   PFLAG,2
0188   6600           00710         INCR    r0x100A
                      00711 ;;[ICODE] ../../libsdcc_mc32l/fsdiv.c:116:      iTemp66 [k89 lr71:127 so:0]{ ia0 a2p0 re1 rm0 nos0 ru0 dp0}{long-int fixed}{ sir@ ___fsdiv_result_1_22}[r0x1015 r0x1016 r0x1017 r0x1018 ] = iTemp66 [k89 lr71:127 so:0]{ ia0 a2p0 re1 rm0 nos0 ru0 dp0}{long-int fixed}{ sir@ ___fsdiv_result_1_22}[r0x1015 r0x1016 r0x1017 r0x1018 ] >> 0x1 {const-unsigned-char literal}
                      00712 ;;shiftRight_Left2ResultLit:5216: shCount=1, size=4, sign=1, same=1, offr=0
                      00713 ;       .line   116; "../../libsdcc_mc32l/fsdiv.c"      result >>= 1;
0189   D1B7           00714         BCLR    PFLAG,0
018A   FE00           00715         JBCLR   r0x1020,7
018B   C1B7           00716         BSET    PFLAG,0
018C   4E00           00717         RRR     r0x1020
018D   4E00           00718         RRR     r0x101F
018E   4E00           00719         RRR     r0x101E
018F   4E00           00720         RRR     r0x101D
                      00721 ;;[ICODE] ../../libsdcc_mc32l/fsdiv.c:118:      iTemp77 [k101 lr95:96 so:0]{ ia0 a2p0 re0 rm0 nos0 ru0 dp0}{unsigned-long-int register}[r0x1006 r0x100A r0x100B r0x100C ] = (unsigned-long-int register)iTemp66 [k89 lr71:127 so:0]{ ia0 a2p0 re1 rm0 nos0 ru0 dp0}{long-int fixed}{ sir@ ___fsdiv_result_1_22}[r0x1015 r0x1016 r0x1017 r0x1018 ]
                      00722 ;       .line   118; "../../libsdcc_mc32l/fsdiv.c"      result &= ~HIDDEN;
0190   5800           00723         MOVAR   r0x101D
0191   5600           00724         MOVRA   r0x101D
0192   5600           00725         MOVRA   r0x100D
0193   5800           00726         MOVAR   r0x101E
0194   5600           00727         MOVRA   r0x101E
0195   5600           00728         MOVRA   r0x1012
0196   5800           00729         MOVAR   r0x101F
0197   5600           00730         MOVRA   r0x1013
0198   5800           00731         MOVAR   r0x1020
0199   5600           00732         MOVRA   r0x1020
019A   5600           00733         MOVRA   r0x1014
                      00734 ;;[ICODE] ../../libsdcc_mc32l/fsdiv.c:118:      iTemp66 [k89 lr71:127 so:0]{ ia0 a2p0 re1 rm0 nos0 ru0 dp0}{long-int fixed}{ sir@ ___fsdiv_result_1_22}[r0x1015 r0x1016 r0x1017 r0x1018 ] = iTemp77 [k101 lr95:96 so:0]{ ia0 a2p0 re0 rm0 nos0 ru0 dp0}{unsigned-long-int register}[r0x1006 r0x100A r0x100B r0x100C ] & 0xff7fffff {unsigned-long-int literal}
                      00735 ;;107   MOVAR   r0x100D
                      00736 ;;111   MOVAR   r0x1012
019B   3C7F           00737         MOVAI   0x7f
019C   7800           00738         ANDAR   r0x1013
019D   5600           00739         MOVRA   r0x101F
                      00740 ;;129   MOVAR   r0x1014
                      00741 ;;[ICODE] ../../libsdcc_mc32l/fsdiv.c:121:      iTemp79 [k103 lr98:99 so:0]{ ia0 a2p0 re0 rm0 nos0 ru0 dp0}{char fixed} = iTemp6 [k14 lr14:124 so:0]{ ia0 a2p0 re1 rm0 nos0 ru0 dp0}{int fixed}{ sir@ ___fsdiv_exp_1_22}[r0x1000 r0x1001 ] < 0x100 {const-int literal}
                      00742 ;;signed compare: left < lit(0x100=256), size=2, mask=ffff
                      00743 ;       .line   121; "../../libsdcc_mc32l/fsdiv.c"      if (exp >= 0x100)
019E   5800           00744         MOVAR   r0x100A
019F   3F80           00745         ADDAI   0x80
01A0   3F7F           00746         ADDAI   0x7f
01A1   E5B7           00747         JBSET   PFLAG,2
01A2   2000 2300      00748         LGOTO   _00154_DS_
01A4   3C00           00749         MOVAI   0x00
01A5   4800           00750         RSUBAR  r0x100B
01A6                  00751 _00154_DS_
01A6   E1B7           00752         JBSET   PFLAG,0
01A7   2000 2300      00753         LGOTO   _00120_DS_
                      00754 ;;genSkipc:3195: created from rifx:00DE608C
                      00755 ;;[ICODE] ../../libsdcc_mc32l/fsdiv.c:121:      if iTemp79 [k103 lr98:99 so:0]{ ia0 a2p0 re0 rm0 nos0 ru0 dp0}{char fixed} != 0 goto _iffalse_5($16)
                      00756 ;;[ICODE] ../../libsdcc_mc32l/fsdiv.c:122:      iTemp80 [k104 lr100:108 so:0]{ ia0 a2p0 re0 rm1 nos0 ru0 dp0}{volatile-long-int near* fixed}[remat] = &[___fsdiv_fl1_1_22 [k6 lr0:0 so:0]{ ia0 a2p0 re0 rm0 nos0 ru0 dp0}{volatile-struct float_long fixed}]
                      00757 ;;[ICODE] ../../libsdcc_mc32l/fsdiv.c:122:      if iTemp24 [k35 lr35:118 so:0]{ ia0 a2p0 re1 rm0 nos0 ru0 dp0}{char fixed}{ sir@ ___fsdiv_sign_1_22}[r0x1002 ] == 0 goto iTempLbl0($20)
                      00758 ;       .line   122; "../../libsdcc_mc32l/fsdiv.c"      fl1.l = (sign ? SIGNBIT : 0) | 0x7F800000;
01A9   3C00           00759         MOVAI   0x00
01AA   5C00           00760         ORAR    r0x1009
01AB   F5B7           00761         JBCLR   PFLAG,2
01AC   2000 2300      00762         LGOTO   _00124_DS_
                      00763 ;;[ICODE] ../../libsdcc_mc32l/fsdiv.c:122:      iTemp82 [k107 lr102:107 so:0]{ ia0 a2p0 re0 rm0 nos0 ru0 dp0}{unsigned-long-int register}[r0x1006 r0x100A r0x100B r0x100C ] := 0x80000000 {unsigned-long-int literal}
01AE   7600           00764         CLRR    r0x100D
01AF   7600           00765         CLRR    r0x1012
01B0   7600           00766         CLRR    r0x1013
01B1   3C80           00767         MOVAI   0x80
01B2   5600           00768         MOVRA   r0x1014
                      00769 ;;[ICODE] ../../libsdcc_mc32l/fsdiv.c:122:       goto iTempLbl1($21)
01B3   2000 2300      00770         LGOTO   _00125_DS_
                      00771 ;;[ICODE] ../../libsdcc_mc32l/fsdiv.c:122:  iTempLbl0($20) :
                      00772 ;;[ICODE] ../../libsdcc_mc32l/fsdiv.c:122:      iTemp82 [k107 lr102:107 so:0]{ ia0 a2p0 re0 rm0 nos0 ru0 dp0}{unsigned-long-int register}[r0x1006 r0x100A r0x100B r0x100C ] := 0x0 {unsigned-long-int literal}
01B5                  00773 _00124_DS_
01B5   7600           00774         CLRR    r0x100D
01B6   7600           00775         CLRR    r0x1012
01B7   7600           00776         CLRR    r0x1013
01B8   7600           00777         CLRR    r0x1014
                      00778 ;;[ICODE] ../../libsdcc_mc32l/fsdiv.c:122:  iTempLbl1($21) :
                      00779 ;;[ICODE] ../../libsdcc_mc32l/fsdiv.c:122:      iTemp83 [k108 lr107:108 so:0]{ ia0 a2p0 re0 rm0 nos0 ru0 dp0}{unsigned-long-int register}[r0x1006 r0x100A r0x100B r0x100C ] = iTemp82 [k107 lr102:107 so:0]{ ia0 a2p0 re0 rm0 nos0 ru0 dp0}{unsigned-long-int register}[r0x1006 r0x100A r0x100B r0x100C ] | 0x7f800000 {unsigned-long-int literal}
01B9                  00780 _00125_DS_
01B9   CE00           00781         BSET    r0x1013,7
01BA   3C7F           00782         MOVAI   0x7f
01BB   5E00           00783         ORRA    r0x1014
                      00784 ;;[ICODE] ../../libsdcc_mc32l/fsdiv.c:122:      *(iTemp80 [k104 lr100:108 so:0]{ ia1 a2p0 re0 rm1 nos0 ru0 dp0}{volatile-long-int near* fixed}[remat]) := iTemp83 [k108 lr107:108 so:0]{ ia0 a2p0 re0 rm0 nos0 ru0 dp0}{unsigned-long-int register}[r0x1006 r0x100A r0x100B r0x100C ]
                      00785 ;;gen.c:6374: size=3/4, offset=0, AOP_TYPE(res)=8
01BC   5800           00786         MOVAR   r0x100D
01BD   5600           00787         MOVRA   (___fsdiv_fl1_1_22 + 0)
                      00788 ;;gen.c:6374: size=2/4, offset=1, AOP_TYPE(res)=8
01BE   5800           00789         MOVAR   r0x1012
01BF   5600           00790         MOVRA   (___fsdiv_fl1_1_22 + 1)
                      00791 ;;gen.c:6374: size=1/4, offset=2, AOP_TYPE(res)=8
01C0   5800           00792         MOVAR   r0x1013
01C1   5600           00793         MOVRA   (___fsdiv_fl1_1_22 + 2)
                      00794 ;;gen.c:6374: size=0/4, offset=3, AOP_TYPE(res)=8
01C2   5800           00795         MOVAR   r0x1014
01C3   5600           00796         MOVRA   (___fsdiv_fl1_1_22 + 3)
                      00797 ;;[ICODE] ../../libsdcc_mc32l/fsdiv.c:122:       goto _ifend_5($17)
01C4   2000 2300      00798         LGOTO   _00121_DS_
                      00799 ;;[ICODE] ../../libsdcc_mc32l/fsdiv.c:122:  _iffalse_5($16) :
                      00800 ;;[ICODE] ../../libsdcc_mc32l/fsdiv.c:123:      iTemp84 [k109 lr111:112 so:0]{ ia0 a2p0 re0 rm0 nos0 ru0 dp0}{char fixed} = iTemp6 [k14 lr14:124 so:0]{ ia0 a2p0 re1 rm0 nos0 ru0 dp0}{int fixed}{ sir@ ___fsdiv_exp_1_22}[r0x1000 r0x1001 ] < 0x0 {int literal}
                      00801 ;;signed compare: left < lit(0x0=0), size=2, mask=ffff
01C6                  00802 _00120_DS_
                      00803 ;       .line   123; "../../libsdcc_mc32l/fsdiv.c"      else if (exp < 0)
01C6   C1B7           00804         BSET    PFLAG,0
01C7   EE00           00805         JBSET   r0x100A,7
01C8   D1B7           00806         BCLR    PFLAG,0
01C9   E1B7           00807         JBSET   PFLAG,0
01CA   2000 2300      00808         LGOTO   _00117_DS_
                      00809 ;;genSkipc:3195: created from rifx:00DE608C
                      00810 ;;[ICODE] ../../libsdcc_mc32l/fsdiv.c:123:      if iTemp84 [k109 lr111:112 so:0]{ ia0 a2p0 re0 rm0 nos0 ru0 dp0}{char fixed} == 0 goto _iffalse_4($13)
                      00811 ;;[ICODE] ../../libsdcc_mc32l/fsdiv.c:124:      iTemp85 [k110 lr113:114 so:0]{ ia0 a2p0 re0 rm1 nos0 ru0 dp0}{volatile-long-int near* fixed}[remat] = &[___fsdiv_fl1_1_22 [k6 lr0:0 so:0]{ ia0 a2p0 re0 rm0 nos0 ru0 dp0}{volatile-struct float_long fixed}]
                      00812 ;;[ICODE] ../../libsdcc_mc32l/fsdiv.c:124:      *(iTemp85 [k110 lr113:114 so:0]{ ia1 a2p0 re0 rm1 nos0 ru0 dp0}{volatile-long-int near* fixed}[remat]) := 0x0 {volatile-long-int literal}
                      00813 ;;gen.c:6374: size=3/4, offset=0, AOP_TYPE(res)=8
                      00814 ;       .line   124; "../../libsdcc_mc32l/fsdiv.c"      fl1.l = 0;
01CC   7600           00815         CLRR    (___fsdiv_fl1_1_22 + 0)
                      00816 ;;gen.c:6374: size=2/4, offset=1, AOP_TYPE(res)=8
01CD   7600           00817         CLRR    (___fsdiv_fl1_1_22 + 1)
                      00818 ;;gen.c:6374: size=1/4, offset=2, AOP_TYPE(res)=8
01CE   7600           00819         CLRR    (___fsdiv_fl1_1_22 + 2)
                      00820 ;;gen.c:6374: size=0/4, offset=3, AOP_TYPE(res)=8
01CF   7600           00821         CLRR    (___fsdiv_fl1_1_22 + 3)
                      00822 ;;[ICODE] ../../libsdcc_mc32l/fsdiv.c:124:       goto _ifend_5($17)
01D0   2000 2300      00823         LGOTO   _00121_DS_
                      00824 ;;[ICODE] ../../libsdcc_mc32l/fsdiv.c:124:  _iffalse_4($13) :
                      00825 ;;[ICODE] ../../libsdcc_mc32l/fsdiv.c:126:      iTemp87 [k113 lr117:129 so:0]{ ia0 a2p0 re0 rm1 nos0 ru0 dp0}{volatile-long-int near* fixed}[remat] = &[___fsdiv_fl1_1_22 [k6 lr0:0 so:0]{ ia0 a2p0 re0 rm0 nos0 ru0 dp0}{volatile-struct float_long fixed}]
                      00826 ;;[ICODE] ../../libsdcc_mc32l/fsdiv.c:126:      if iTemp24 [k35 lr35:118 so:0]{ ia0 a2p0 re1 rm0 nos0 ru0 dp0}{char fixed}{ sir@ ___fsdiv_sign_1_22}[r0x1002 ] == 0 goto iTempLbl2($22)
01D2                  00827 _00117_DS_
                      00828 ;       .line   126; "../../libsdcc_mc32l/fsdiv.c"      fl1.l = PACK (sign ? SIGNBIT : 0 , exp, result);
01D2   3C00           00829         MOVAI   0x00
01D3   5C00           00830         ORAR    r0x1009
01D4   F5B7           00831         JBCLR   PFLAG,2
01D5   2000 2300      00832         LGOTO   _00126_DS_
                      00833 ;;[ICODE] ../../libsdcc_mc32l/fsdiv.c:126:      iTemp89 [k116 lr119:126 so:0]{ ia0 a2p0 re0 rm0 nos0 ru0 dp0}{unsigned-long-int register}[r0x1002 r0x1006 r0x100A r0x100B ] := 0x80000000 {unsigned-long-int literal}
01D7   7600           00834         CLRR    r0x1009
01D8   7600           00835         CLRR    r0x100D
01D9   7600           00836         CLRR    r0x1012
01DA   3C80           00837         MOVAI   0x80
01DB   5600           00838         MOVRA   r0x1013
                      00839 ;;[ICODE] ../../libsdcc_mc32l/fsdiv.c:126:       goto iTempLbl3($23)
01DC   2000 2300      00840         LGOTO   _00127_DS_
                      00841 ;;[ICODE] ../../libsdcc_mc32l/fsdiv.c:126:  iTempLbl2($22) :
                      00842 ;;[ICODE] ../../libsdcc_mc32l/fsdiv.c:126:      iTemp89 [k116 lr119:126 so:0]{ ia0 a2p0 re0 rm0 nos0 ru0 dp0}{unsigned-long-int register}[r0x1002 r0x1006 r0x100A r0x100B ] := 0x0 {unsigned-long-int literal}
01DE                  00843 _00126_DS_
01DE   7600           00844         CLRR    r0x1009
01DF   7600           00845         CLRR    r0x100D
01E0   7600           00846         CLRR    r0x1012
01E1   7600           00847         CLRR    r0x1013
                      00848 ;;[ICODE] ../../libsdcc_mc32l/fsdiv.c:126:  iTempLbl3($23) :
                      00849 ;;[ICODE] ../../libsdcc_mc32l/fsdiv.c:126:      iTemp90 [k117 lr124:125 so:0]{ ia0 a2p0 re0 rm0 nos0 ru0 dp0}{unsigned-long-int fixed}[r0x100C r0x100D r0x100E r0x100F ] = (unsigned-long-int fixed)iTemp6 [k14 lr14:124 so:0]{ ia0 a2p0 re1 rm0 nos0 ru0 dp0}{int fixed}{ sir@ ___fsdiv_exp_1_22}[r0x1000 r0x1001 ]
01E2                  00850 _00127_DS_
01E2   5800           00851         MOVAR   r0x100B
01E3   5600           00852         MOVRA   r0x1014
01E4   5800           00853         MOVAR   r0x100A
01E5   5600           00854         MOVRA   r0x1015
01E6   3C00           00855         MOVAI   0x00
01E7   FE00           00856         JBCLR   r0x1015,7
01E8   3CFF           00857         MOVAI   0xff
01E9   5600           00858         MOVRA   r0x1017
01EA   5600           00859         MOVRA   r0x1016
                      00860 ;;[ICODE] ../../libsdcc_mc32l/fsdiv.c:126:      iTemp91 [k118 lr125:126 so:0]{ ia0 a2p0 re0 rm0 nos0 ru0 dp0}{unsigned-long-int fixed}[r0x1000 r0x1001 r0x1010 r0x1011 ] = iTemp90 [k117 lr124:125 so:0]{ ia0 a2p0 re0 rm0 nos0 ru0 dp0}{unsigned-long-int fixed}[r0x100C r0x100D r0x100E r0x100F ] << 0x17 {const-unsigned-char literal}
01EB   4C00           00861         RRAR    r0x1015
01EC   4C00           00862         RRAR    r0x1014
01ED   5600           00863         MOVRA   r0x1019
01EE   7600           00864         CLRR    r0x1018
01EF   4E00           00865         RRR     r0x1018
01F0   7600           00866         CLRR    r0x100A
01F1   7600           00867         CLRR    r0x100B
                      00868 ;;[ICODE] ../../libsdcc_mc32l/fsdiv.c:126:      iTemp92 [k119 lr126:128 so:0]{ ia0 a2p0 re0 rm0 nos0 ru0 dp0}{unsigned-long-int fixed}[r0x1002 r0x1006 r0x100A r0x100B ] = iTemp89 [k116 lr119:126 so:0]{ ia0 a2p0 re0 rm0 nos0 ru0 dp0}{unsigned-long-int register}[r0x1002 r0x1006 r0x100A r0x100B ] | iTemp91 [k118 lr125:126 so:0]{ ia0 a2p0 re0 rm0 nos0 ru0 dp0}{unsigned-long-int fixed}[r0x1000 r0x1001 r0x1010 r0x1011 ]
01F2   3C00           00869         MOVAI   0x00
01F3   5E00           00870         ORRA    r0x1009
01F4   3C00           00871         MOVAI   0x00
01F5   5E00           00872         ORRA    r0x100D
01F6   5800           00873         MOVAR   r0x1018
01F7   5E00           00874         ORRA    r0x1012
01F8   5800           00875         MOVAR   r0x1019
01F9   5E00           00876         ORRA    r0x1013
                      00877 ;;[ICODE] ../../libsdcc_mc32l/fsdiv.c:126:      iTemp93 [k120 lr127:128 so:0]{ ia0 a2p0 re0 rm0 nos0 ru0 dp0}{unsigned-long-int fixed}[r0x1000 r0x1001 r0x100C r0x100D ] = (unsigned-long-int fixed)iTemp66 [k89 lr71:127 so:0]{ ia0 a2p0 re1 rm0 nos0 ru0 dp0}{long-int fixed}{ sir@ ___fsdiv_result_1_22}[r0x1015 r0x1016 r0x1017 r0x1018 ]
                      00878 ;;100   MOVAR   r0x101D
                      00879 ;;102   MOVAR   r0x101E
                      00880 ;;114   MOVAR   r0x101F
                      00881 ;;116   MOVAR   r0x1020
                      00882 ;;[ICODE] ../../libsdcc_mc32l/fsdiv.c:126:      iTemp94 [k121 lr128:129 so:0]{ ia0 a2p0 re0 rm0 nos0 ru0 dp0}{unsigned-long-int fixed}[r0x1015 r0x1016 r0x1017 r0x1018 ] = iTemp92 [k119 lr126:128 so:0]{ ia0 a2p0 re0 rm0 nos0 ru0 dp0}{unsigned-long-int fixed}[r0x1002 r0x1006 r0x100A r0x100B ] | iTemp93 [k120 lr127:128 so:0]{ ia0 a2p0 re0 rm0 nos0 ru0 dp0}{unsigned-long-int fixed}[r0x1000 r0x1001 r0x100C r0x100D ]
                      00883 ;;99    MOVAR   r0x100B
01FA   5800           00884         MOVAR   r0x101D
01FB   5600           00885         MOVRA   r0x100B
01FC   5C00           00886         ORAR    r0x1009
01FD   5600           00887         MOVRA   r0x101D
                      00888 ;;101   MOVAR   r0x100A
01FE   5800           00889         MOVAR   r0x101E
01FF   5600           00890         MOVRA   r0x100A
0200   5C00           00891         ORAR    r0x100D
0201   5600           00892         MOVRA   r0x101E
                      00893 ;;113   MOVAR   r0x1014
0202   5800           00894         MOVAR   r0x101F
0203   5600           00895         MOVRA   r0x1014
0204   5C00           00896         ORAR    r0x1012
0205   5600           00897         MOVRA   r0x101F
                      00898 ;;115   MOVAR   r0x1015
0206   5800           00899         MOVAR   r0x1020
0207   5600           00900         MOVRA   r0x1015
0208   5C00           00901         ORAR    r0x1013
0209   5600           00902         MOVRA   r0x1020
                      00903 ;;[ICODE] ../../libsdcc_mc32l/fsdiv.c:126:      *(iTemp87 [k113 lr117:129 so:0]{ ia1 a2p0 re0 rm1 nos0 ru0 dp0}{volatile-long-int near* fixed}[remat]) := iTemp94 [k121 lr128:129 so:0]{ ia0 a2p0 re0 rm0 nos0 ru0 dp0}{unsigned-long-int fixed}[r0x1015 r0x1016 r0x1017 r0x1018 ]
                      00904 ;;gen.c:6374: size=3/4, offset=0, AOP_TYPE(res)=8
020A   5800           00905         MOVAR   r0x101D
020B   5600           00906         MOVRA   (___fsdiv_fl1_1_22 + 0)
                      00907 ;;gen.c:6374: size=2/4, offset=1, AOP_TYPE(res)=8
020C   5800           00908         MOVAR   r0x101E
020D   5600           00909         MOVRA   (___fsdiv_fl1_1_22 + 1)
                      00910 ;;gen.c:6374: size=1/4, offset=2, AOP_TYPE(res)=8
020E   5800           00911         MOVAR   r0x101F
020F   5600           00912         MOVRA   (___fsdiv_fl1_1_22 + 2)
                      00913 ;;gen.c:6374: size=0/4, offset=3, AOP_TYPE(res)=8
0210   5800           00914         MOVAR   r0x1020
0211   5600           00915         MOVRA   (___fsdiv_fl1_1_22 + 3)
                      00916 ;;[ICODE] ../../libsdcc_mc32l/fsdiv.c:126:  _ifend_5($17) :
                      00917 ;;[ICODE] ../../libsdcc_mc32l/fsdiv.c:127:      iTemp95 [k122 lr131:132 so:0]{ ia0 a2p0 re0 rm1 nos0 ru0 dp0}{volatile-float near* fixed}[remat] = &[___fsdiv_fl1_1_22 [k6 lr0:0 so:0]{ ia0 a2p0 re0 rm0 nos0 ru0 dp0}{volatile-struct float_long fixed}]
                      00918 ;;[ICODE] ../../libsdcc_mc32l/fsdiv.c:127:      iTemp97 [k125 lr132:133 so:0]{ ia0 a2p0 re0 rm0 nos0 ru1 dp0}{volatile-float fixed}[r0x1000 r0x1001 r0x1002 r0x1006 ] = @[iTemp95 [k122 lr131:132 so:0]{ ia1 a2p0 re0 rm1 nos0 ru0 dp0}{volatile-float near* fixed}[remat] + 0x0 {const-unsigned-char literal}]
0212                  00919 _00121_DS_
                      00920 ;       .line   127; "../../libsdcc_mc32l/fsdiv.c"      return (fl1.f);
0212   5800           00921         MOVAR   (___fsdiv_fl1_1_22 + 0)
0213   5600           00922         MOVRA   r0x100B
0214   5800           00923         MOVAR   (___fsdiv_fl1_1_22 + 1)
0215   5600           00924         MOVRA   r0x100A
0216   5800           00925         MOVAR   (___fsdiv_fl1_1_22 + 2)
0217   5600           00926         MOVRA   r0x1009
0218   5800           00927         MOVAR   (___fsdiv_fl1_1_22 + 3)
0219   5600           00928         MOVRA   r0x100D
                      00929 ;;[ICODE] ../../libsdcc_mc32l/fsdiv.c:127:      ret iTemp97 [k125 lr132:133 so:0]{ ia0 a2p0 re0 rm0 nos0 ru1 dp0}{volatile-float fixed}[r0x1000 r0x1001 r0x1002 r0x1006 ]
021A   5800           00930         MOVAR   r0x100B
021B   5600           00931         MOVRA   STK02
021C   5800           00932         MOVAR   r0x100A
021D   5600           00933         MOVRA   STK01
021E   5800           00934         MOVAR   r0x1009
021F   5600           00935         MOVRA   STK00
0220   5800           00936         MOVAR   r0x100D
                      00937 ;;[ICODE] ../../libsdcc_mc32l/fsdiv.c:127:  _return($18) :
                      00938 ;;[ICODE] ../../libsdcc_mc32l/fsdiv.c:127:      eproc ___fsdiv [k1 lr0:0 so:0]{ ia0 a2p0 re0 rm0 nos0 ru0 dp0}{float function ( float fixed, float fixed) fixed}
0221                  00939 _00122_DS_
0221   000C           00940         RETURN  
                      00941 ; exit point of ___fsdiv
                      00942 
                      00943 
                      00944 ;       code size estimation:
                      00945 ;         519+    0 =   519 instructions ( 1038 byte)
                      00946 
                      00947         end
gpasm-2.0.0_beta2 (Nov  6 2017)fsdiv.asm          2018-1-12  10:31:13          PAGE  2


SYMBOL TABLE
  LABEL                             VALUE

ADCHS0                            00000004
ADCHS1                            00000005
ADCHS2                            00000006
ADCHS3                            00000007
ADCKS0                            00000002
ADCKS1                            00000003
ADCR0                             000001E8
ADCR1                             000001E9
ADCR2                             000001EA
ADDRH                             000001EC
ADDRL                             000001ED
ADEOC                             00000001
ADIE                              00000007
ADIF                              00000007
ADIOS0                            00000000
ADIOS1                            00000001
ADIOS2                            00000002
ADIOS3                            00000003
ADIOS4                            00000004
ADIOS5                            00000005
ADIOS6                            00000006
ADIOS7                            00000007
ADON                              00000000
C                                 00000000
CLKS                              00000002
CSEL0                             00000000
CSEL1                             00000001
DC                                00000001
DKW                               000001F4
DKWE                              00000007
DKWP0                             000001C3
DRVS                              00000001
DSELEN                            00000000
FILS                              00000003
FLCD0                             00000000
FLCD1                             00000001
FPWMA0                            00000002
FPWMA1                            00000003
FPWMB0                            00000000
FPWMB1                            00000001
FPWMEN                            00000007
FPWMS                             00000004
FSEL0                             00000002
FSEL1                             00000003
FSR0                              000001B4
FSR00                             00000000
FSR01                             00000001
FSR02                             00000002
FSR03                             00000003
FSR04                             00000004
FSR05                             00000005
FSR06                             00000006
FSR07                             00000007
FSR1                              000001B5
FSR10                             00000000
FSR11                             00000001
FSR12                             00000002
FSR13                             00000003
FSR14                             00000004
FSR15                             00000005
FSR16                             00000006
FSR17                             00000007
GIE                               00000007
HFEN                              00000000
HIBYTE                            000001B3
HIBYTE0                           00000000
HIBYTE1                           00000001
HIBYTE2                           00000002
HIBYTE3                           00000003
HIBYTE4                           00000004
HIBYTE5                           00000005
HIBYTE6                           00000006
HIBYTE7                           00000007
INDF0                             000001B0
INDF00                            00000000
INDF01                            00000001
INDF02                            00000002
INDF03                            00000003
INDF04                            00000004
INDF05                            00000005
INDF06                            00000006
INDF07                            00000007
INDF1                             000001B1
INDF10                            00000000
INDF11                            00000001
INDF12                            00000002
INDF13                            00000003
INDF14                            00000004
INDF15                            00000005
INDF16                            00000006
INDF17                            00000007
INDF2                             000001B2
INDF20                            00000000
INDF21                            00000001
INDF22                            00000002
INDF23                            00000003
INDF24                            00000004
INDF25                            00000005
INDF26                            00000006
INDF27                            00000007
INDF3                             000001B9
INDF30                            00000000
INDF31                            00000001
INDF32                            00000002
INDF33                            00000003
INDF34                            00000004
INDF35                            00000005
INDF36                            00000006
INDF37                            00000007
INT0IE                            00000002
INT0IF                            00000002
INT1IE                            00000003
INT1IF                            00000003
INTE                              000001BA
INTF                              000001BB
IOP0                              000001C0
IOP1                              000001C4
IOP2                              000001C8
IOP3                              000001CC
IOP4                              000001D0
IOP5                              000001D4
IRIN                              00000007
IROS                              00000006
IROT                              00000005
KBCR                              000001F5
KBCR0                             00000000
KBCR1                             00000001
KBCR2                             00000002
KBCR3                             00000003
KBCR4                             00000004
KBCR5                             00000005
KBCR6                             00000006
KBCR7                             00000007
KBIE                              00000004
KBIF                              00000004
LCDCKS                            00000002
LCDCR0                            000001F2
LCDCR1                            000001F3
LCDDRV                            000001F6
LCDDRVP06                         00000000
LCDDRVP22                         00000001
LCDDRVP23                         00000002
LCDDS00                           00000100
LCDDS01                           00000101
LCDDS02                           00000102
LCDDS03                           00000103
LCDDS04                           00000104
LCDDS05                           00000105
LCDDS06                           00000106
LCDDS07                           00000107
LCDDS08                           00000108
LCDDS09                           00000109
LCDDS10                           0000010A
LCDDS11                           0000010B
LCDDS12                           0000010C
LCDDS13                           0000010D
LCDDS14                           0000010E
LCDDS15                           0000010F
LCDDS16                           00000110
LCDDS17                           00000111
LCDDS18                           00000112
LCDDS19                           00000113
LCDDS20                           00000114
LCDDS21                           00000115
LCDDS22                           00000116
LCDDS23                           00000117
LCDDS24                           00000118
LCDDS25                           00000119
LCDDS26                           0000011A
LCDDS27                           0000011B
LCDDS28                           0000011C
LCDDS29                           0000011D
LCDDUTY                           00000004
LCDEN                             00000007
LCDIOSP1                          000001C7
LCDIOSP10                         00000000
LCDIOSP11                         00000001
LCDIOSP12                         00000002
LCDIOSP13                         00000003
LCDIOSP14                         00000004
LCDIOSP15                         00000005
LCDIOSP16                         00000006
LCDIOSP17                         00000007
LCDIOSP2                          000001CB
LCDIOSP20                         00000000
LCDIOSP21                         00000001
LCDIOSP22                         00000002
LCDIOSP23                         00000003
LCDIOSP24                         00000004
LCDIOSP25                         00000005
LCDIOSP26                         00000006
LCDIOSP27                         00000007
LCDIOSP3                          000001CF
LCDIOSP30                         00000000
LCDIOSP31                         00000001
LCDIOSP32                         00000002
LCDIOSP33                         00000003
LCDIOSP34                         00000004
LCDIOSP35                         00000005
LCDIOSP36                         00000006
LCDIOSP37                         00000007
LCDIOSP4                          000001D3
LCDIOSP40                         00000000
LCDIOSP41                         00000001
LCDIOSP42                         00000002
LCDIOSP43                         00000003
LCDIOSP44                         00000004
LCDIOSP45                         00000005
LCDIOSP46                         00000006
LCDIOSP47                         00000007
LCDIOSP5                          000001D7
LCDIOSP50                         00000000
LCDIOSP51                         00000001
LCDM                              00000003
LCDRS0                            00000000
LCDRS1                            00000001
LCDSP0                            00000005
LCDSP1                            00000006
LCDSPEED                          00000002
LFEN                              00000001
LPEN0                             00000000
LPEN1                             00000001
LPEN2                             00000002
LVDCR                             000001BD
LVDEN                             00000007
LVDF                              00000000
LVDIE                             00000005
LVDIF                             00000005
LVDS0                             00000003
LVDS1                             00000004
LVDS2                             00000005
LVDS3                             00000006
LXTCR                             000001BE
MCR                               000001B8
MINT00                            00000000
MINT01                            00000001
MINT10                            00000002
MINT11                            00000003
OEP0                              000001C1
OEP1                              000001C5
OEP2                              000001C9
OEP3                              000001CD
OEP4                              000001D1
OEP5                              000001D5
OPAE                              00000007
OPAM                              00000006
OPCR0                             000001F0
OPCR1                             000001F1
OPFC0                             00000000
OPFC1                             00000001
OPFC2                             00000002
OPFC3                             00000003
OPFC4                             00000004
OPFC5                             00000005
OSCM                              000001BC
P00D                              00000000
P00DKW                            00000000
P00OE                             00000000
P00PU                             00000000
P01D                              00000001
P01DKW                            00000001
P01OE                             00000001
P01PU                             00000001
P02D                              00000002
P02DKW                            00000002
P02OE                             00000002
P02PU                             00000002
P03D                              00000003
P03DKW                            00000003
P03OE                             00000003
P03PU                             00000003
P04D                              00000004
P04DKW                            00000004
P04OE                             00000004
P04PU                             00000004
P05D                              00000005
P05DKW                            00000005
P05OE                             00000005
P05PU                             00000005
P06D                              00000006
P06DKW                            00000006
P06OE                             00000006
P06PU                             00000006
P07D                              00000007
P07DKW                            00000007
P07OE                             00000007
P07PU                             00000007
P10D                              00000000
P10OE                             00000000
P10PU                             00000000
P11D                              00000001
P11OE                             00000001
P11PU                             00000001
P12D                              00000002
P12OE                             00000002
P12PU                             00000002
P13D                              00000003
P13OE                             00000003
P13PU                             00000003
P14D                              00000004
P14OE                             00000004
P14PU                             00000004
P15D                              00000005
P15OE                             00000005
P15PU                             00000005
P16D                              00000006
P16OE                             00000006
P16PU                             00000006
P17D                              00000007
P17OE                             00000007
P17PU                             00000007
P20D                              00000000
P20OE                             00000000
P20PU                             00000000
P21D                              00000001
P21OE                             00000001
P21PU                             00000001
P22D                              00000002
P22OE                             00000002
P22PU                             00000002
P23D                              00000003
P23OE                             00000003
P23PU                             00000003
P24D                              00000004
P24OE                             00000004
P24PU                             00000004
P25D                              00000005
P25OE                             00000005
P25PU                             00000005
P26D                              00000006
P26OE                             00000006
P26PU                             00000006
P27D                              00000007
P27OE                             00000007
P27PU                             00000007
P30D                              00000000
P30OE                             00000000
P30PU                             00000000
P31D                              00000001
P31OE                             00000001
P31PU                             00000001
P32D                              00000002
P32OE                             00000002
P32PU                             00000002
P33D                              00000003
P33OE                             00000003
P33PU                             00000003
P34D                              00000004
P34OE                             00000004
P34PU                             00000004
P35D                              00000005
P35OE                             00000005
P35PU                             00000005
P36D                              00000006
P36OE                             00000006
P36PU                             00000006
P37D                              00000007
P37OE                             00000007
P37PU                             00000007
P40D                              00000000
P40OE                             00000000
P40PU                             00000000
P41D                              00000001
P41OE                             00000001
P41PU                             00000001
P42D                              00000002
P42OE                             00000002
P42PU                             00000002
P43D                              00000003
P43OE                             00000003
P43PU                             00000003
P44D                              00000004
P44OE                             00000004
P44PU                             00000004
P45D                              00000005
P45OE                             00000005
P45PU                             00000005
P46D                              00000006
P46OE                             00000006
P46PU                             00000006
P47D                              00000007
P47OE                             00000007
P47PU                             00000007
P50D                              00000000
P50OE                             00000000
P50PU                             00000000
P51D                              00000001
P51OE                             00000001
P51PU                             00000001
P52D                              00000002
P52OE                             00000002
P52PU                             00000002
P53D                              00000003
P53OE                             00000003
P53PU                             00000003
P54D                              00000004
P54OE                             00000004
P55D                              00000005
P55OE                             00000005
P55PU                             00000005
PC0                               00000000
PC1                               00000001
PC2                               00000002
PC3                               00000003
PC4                               00000004
PC5                               00000005
PC6                               00000006
PC7                               00000007
PCL                               000001B6
PD                                00000004
PFLAG                             000001B7
PUP0                              000001C2
PUP1                              000001C6
PUP2                              000001CA
PUP3                              000001CE
PUP4                              000001D2
PUP5                              000001D6
PWMEN                             00000006
RSEL                              00000002
STBH                              00000004
STBL                              00000005
STK00                             00000000
STK01                             00000000
STK02                             00000000
STK03                             00000000
STK04                             00000000
STK05                             00000000
STK06                             00000000
T0CR0                             000001D8
T0CR1                             000001D9
T0DATAH                           000001DE
T0DATAH0                          00000000
T0DATAH1                          00000001
T0DATAH2                          00000002
T0DATAH3                          00000003
T0DATAH4                          00000004
T0DATAH5                          00000005
T0DATAH6                          00000006
T0DATAH7                          00000007
T0DATAL                           000001DF
T0DATAL0                          00000000
T0DATAL1                          00000001
T0DATAL2                          00000002
T0DATAL3                          00000003
T0DATAL4                          00000004
T0DATAL5                          00000005
T0DATAL6                          00000006
T0DATAL7                          00000007
T0IE                              00000000
T0IF                              00000000
T0LATFH                           000001E2
T0LATFH0                          00000000
T0LATFH1                          00000001
T0LATFH2                          00000002
T0LATFH3                          00000003
T0LATFH4                          00000004
T0LATFH5                          00000005
T0LATFH6                          00000006
T0LATFH7                          00000007
T0LATFL                           000001E3
T0LATFL0                          00000000
T0LATFL1                          00000001
T0LATFL2                          00000002
T0LATFL3                          00000003
T0LATFL4                          00000004
T0LATFL5                          00000005
T0LATFL6                          00000006
T0LATFL7                          00000007
T0LATRH                           000001E0
T0LATRH0                          00000000
T0LATRH1                          00000001
T0LATRH2                          00000002
T0LATRH3                          00000003
T0LATRH4                          00000004
T0LATRH5                          00000005
T0LATRH6                          00000006
T0LATRH7                          00000007
T0LATRL                           000001E1
T0LATRL0                          00000000
T0LATRL1                          00000001
T0LATRL2                          00000002
T0LATRL3                          00000003
T0LATRL4                          00000004
T0LATRL5                          00000005
T0LATRL6                          00000006
T0LATRL7                          00000007
T0LOADH                           000001DC
T0LOADL                           000001DD
T0LOADL0                          00000000
T0LOADL1                          00000001
T0LOADL2                          00000002
T0LOADL3                          00000003
T0LOADL4                          00000004
T0LOADL5                          00000005
T0LOADL6                          00000006
T0LOADL7                          00000007
T0MOD0                            00000005
T0MOD1                            00000006
T0PR0                             00000000
T0PR1                             00000001
T0PR2                             00000002
T0PTS0                            00000003
T0PTS1                            00000004
T0RF                              00000006
T1CR                              000001E4
T1DATA                            000001E5
T1DATA0                           00000000
T1DATA1                           00000001
T1DATA2                           00000002
T1DATA3                           00000003
T1DATA4                           00000004
T1DATA5                           00000005
T1DATA6                           00000006
T1DATA7                           00000007
T1IE                              00000001
T1IF                              00000001
T1LOAD                            000001E6
T1LOAD0                           00000000
T1LOAD1                           00000001
T1LOAD2                           00000002
T1LOAD3                           00000003
T1LOAD4                           00000004
T1LOAD5                           00000005
T1LOAD6                           00000006
T1LOAD7                           00000007
T1MOD0                            00000005
T1MOD1                            00000006
T1PR0                             00000000
T1PR1                             00000001
T1PR2                             00000002
T1PTS0                            00000003
T1PTS1                            00000004
TC0EN                             00000007
TC1EN                             00000007
TO                                00000005
VDLSEL                            00000004
VLCDS                             00000003
VREFRES                           00000001
VREXT                             00000000
VSEL                              00000006
WSEL0                             00000003
WSEL1                             00000004
Z                                 00000002
_00106_DS_                        000000C6
_00108_DS_                        000000DE
_00110_DS_                        00000129
_00112_DS_                        00000173
_00113_DS_                        00000132
_00115_DS_                        0000017F
_00117_DS_                        000001D2
_00120_DS_                        000001C6
_00121_DS_                        00000212
_00122_DS_                        00000221
_00124_DS_                        000001B5
_00125_DS_                        000001B9
_00126_DS_                        000001DE
_00127_DS_                        000001E2
_00148_DS_                        00000063
_00149_DS_                        00000064
_00150_DS_                        0000006D
_00151_DS_                        0000006E
_00152_DS_                        0000011D
_00153_DS_                        0000014E
_00154_DS_                        000001A6
_CONFIG0                          00008000
_CONFIG1                          00008001
__33P116                          00000001
___fs2schar                       00000000
___fs2sint                        00000000
___fs2slong                       00000000
___fs2uchar                       00000000
___fs2uint                        00000000
___fs2ulong                       00000000
___fsadd                          00000000
___fsdiv                          00000000
___fsdiv_fl1_1_22                 0000001D
___fsdiv_fl2_1_22                 00000021
___fseq                           00000000
___fsgt                           00000000
___fslt                           00000000
___fsmul                          00000000
___fsneq                          00000000
___fssub                          00000000
___schar2fs                       00000000
___sint2fs                        00000000
___slong2fs                       00000000
___uchar2fs                       00000000
___uint2fs                        00000000
___ulong2fs                       00000000
r0x1008                           00000003
r0x1009                           00000002
r0x100A                           00000001
r0x100B                           00000000
r0x100C                           00000007
r0x100D                           00000006
r0x100E                           00000005
r0x100F                           00000004
r0x1010                           00000008
r0x1011                           00000009
r0x1012                           0000000A
r0x1013                           0000000B
r0x1014                           0000000C
r0x1015                           0000000D
r0x1016                           0000000E
r0x1017                           0000000F
r0x1018                           00000010
r0x1019                           00000011
r0x101A                           00000012
r0x101B                           00000013
r0x101C                           00000014
r0x101D                           00000015
r0x101E                           00000016
r0x101F                           00000017
r0x1020                           00000018
r0x1021                           00000019
r0x1022                           0000001A
r0x1023                           0000001B
r0x1024                           0000001C

Errors   :     0
Warnings :     0 reported,     0 suppressed
Messages :     0 reported,     0 suppressed

